Certificate:
    Data:
        Version: 3 (0x2)
        Serial Number:
            a6:33:a4:97:a0:83:23:95:ca:dd:db:7a:e7:94:ac:ba
        Signature Algorithm: sha256WithRSAEncryption
        Issuer: O=Swaptacular Nodes Registry, OU=Creditors Agents/serialNumber=fa78d2429654a1d62083a74e6265dd01
        Validity
            Not Before: May 22 11:08:00 2025 GMT
            Not After : Apr 28 11:08:00 2125 GMT
        Subject: O=Swaptacular Nodes Registry, OU=Creditors Agents/serialNumber=fa78d2429654a1d62083a74e6265dd01
        Subject Public Key Info:
            Public Key Algorithm: rsaEncryption
                Public-Key: (3072 bit)
                Modulus:
                    00:bb:b8:eb:24:54:ea:be:05:4e:f3:9b:f6:f4:e4:
                    34:db:76:cf:d3:3d:b8:b9:71:ae:d9:60:10:d1:9a:
                    ea:ed:ef:ee:d4:e9:2e:b3:60:60:5d:f2:76:e8:2d:
                    dc:17:b2:bc:5a:60:5a:ee:c9:1b:df:59:d6:c0:21:
                    5f:c9:9e:73:c8:34:7f:c7:d2:11:40:93:16:9c:67:
                    04:9a:f9:2d:58:40:44:24:a1:b5:73:d7:cf:02:39:
                    d9:ec:c4:04:97:ed:fe:12:83:e5:bd:b8:6f:e8:63:
                    d0:2a:68:df:5a:35:a9:81:80:e8:ad:a6:f1:36:11:
                    66:0e:a5:ab:d8:0b:2a:4e:80:a6:bb:46:e0:42:7b:
                    df:8f:51:07:64:ea:87:8e:3f:11:3d:f2:fd:29:06:
                    a6:c1:b4:ad:a7:66:3c:b6:73:46:a1:a0:c3:53:b2:
                    44:76:9e:93:e9:df:c5:cc:cc:a8:63:79:a8:0b:17:
                    96:03:8b:b5:3c:98:cd:42:c7:ae:52:7e:cf:48:28:
                    27:cd:89:cf:50:14:d8:79:24:c7:48:ca:65:5f:fc:
                    cf:d3:d2:d9:41:6e:9f:c8:d7:73:90:cb:d8:14:16:
                    63:0c:61:22:53:be:7f:3e:4d:4d:3c:8b:d2:72:ce:
                    dd:4f:fd:25:c5:5b:ab:7a:5a:ee:40:38:8e:76:8d:
                    90:b8:ab:a0:65:a1:aa:ea:22:51:a3:bc:33:ee:0f:
                    fc:da:51:63:45:b3:5f:75:03:dd:99:85:ed:0c:7c:
                    04:f0:53:40:28:6a:1a:39:d3:12:93:47:39:85:30:
                    10:33:4f:d1:88:33:f6:03:ea:a0:43:0b:eb:ba:4e:
                    80:73:d4:99:bf:15:17:c6:dc:f5:c3:ad:55:75:bd:
                    f1:51:80:ba:fa:25:7c:0c:f5:fa:ca:44:f8:22:28:
                    83:68:f9:77:9e:8a:ba:a7:4b:62:d0:22:af:d4:f4:
                    d5:17:9d:65:2d:c8:0a:11:21:ae:f2:46:8f:0f:09:
                    63:92:fe:cc:1b:c2:27:e5:0c:bd
                Exponent: 65537 (0x10001)
        X509v3 extensions:
            X509v3 Authority Key Identifier: 
                07:C6:6D:31:FB:83:E3:27:71:D3:0E:D9:09:2C:E2:DB:15:34:1B:2C
            X509v3 Basic Constraints: critical
                CA:FALSE
            X509v3 Extended Key Usage: 
                TLS Web Client Authentication, TLS Web Server Authentication
            X509v3 Key Usage: critical
                Digital Signature, Key Encipherment
            X509v3 Subject Key Identifier: 
                CD:AA:06:8E:AB:B5:7F:D8:9C:68:97:C8:CE:4A:F7:F5:66:CF:C0:D0
    Signature Algorithm: sha256WithRSAEncryption
    Signature Value:
        25:7a:ff:b0:5b:0d:35:83:49:76:70:aa:dc:eb:2e:64:0f:ba:
        b7:28:c7:88:a8:4b:e3:01:7c:10:d4:dd:ce:ce:62:89:4c:80:
        88:f5:1a:c8:ee:d2:9e:d6:4d:ff:53:7c:34:ba:69:9b:b8:c0:
        62:6f:02:c0:d4:de:82:11:c7:2b:63:18:8f:db:cf:c2:51:e9:
        15:64:f2:f9:92:c6:ab:09:a0:ca:8c:99:14:4d:c0:1b:e4:fa:
        00:5a:90:76:34:0b:7f:96:67:8f:fc:42:44:ad:05:72:6f:58:
        8d:6c:e4:ca:22:ea:36:23:f4:2a:52:c6:30:f2:5d:fa:71:11:
        0a:bf:c7:eb:6a:d1:99:9a:c5:09:58:f0:b8:89:fe:7b:6d:13:
        b0:43:c4:5e:47:18:b8:fb:2f:fa:6b:ee:86:54:f3:e1:9f:44:
        3f:d3:00:c4:9a:e4:68:63:93:59:05:99:a7:ae:1d:4b:07:5f:
        01:58:3c:7e:98:7f:51:3f:00:e5:34:e7:ea:c8:21:56:95:1a:
        53:79:97:c7:6a:27:90:88:0c:ea:f9:b0:7d:12:4f:64:61:07:
        15:c6:31:bf:bf:ca:e2:ad:05:2d:fd:2f:e7:6e:fb:d3:7b:28:
        df:0d:b6:42:44:0f:3e:5a:71:89:2a:ff:d3:96:07:54:74:03:
        a3:c4:c9:91:27:30:57:c5:21:7b:0f:0d:63:0e:74:a5:48:80:
        f4:74:eb:10:d0:ca:54:f6:08:c5:ac:a2:d4:67:8c:4a:de:7f:
        3f:2f:8a:28:ab:b0:5c:c8:97:93:99:7e:83:e2:51:45:b9:df:
        31:7a:e7:bc:85:f7:30:6f:48:d6:da:24:a5:fb:78:3d:d5:98:
        21:ef:77:b8:86:d5:22:82:41:dd:79:48:72:51:ce:3f:55:ad:
        10:b4:4b:62:6d:bb:ec:c1:72:1a:0f:87:d5:71:7e:39:98:3b:
        22:5e:06:fa:eb:7a:09:ae:ba:b7:5c:7a:a6:4c:0b:83:bc:d8:
        14:d7:de:6e:71:80
-----BEGIN CERTIFICATE-----
MIIE4jCCA0qgAwIBAgIRAKYzpJeggyOVyt3beueUrLowDQYJKoZIhvcNAQELBQAw
azEjMCEGA1UECgwaU3dhcHRhY3VsYXIgTm9kZXMgUmVnaXN0cnkxGTAXBgNVBAsM
EENyZWRpdG9ycyBBZ2VudHMxKTAnBgNVBAUTIGZhNzhkMjQyOTY1NGExZDYyMDgz
YTc0ZTYyNjVkZDAxMCAXDTI1MDUyMjExMDgwMFoYDzIxMjUwNDI4MTEwODAwWjBr
MSMwIQYDVQQKDBpTd2FwdGFjdWxhciBOb2RlcyBSZWdpc3RyeTEZMBcGA1UECwwQ
Q3JlZGl0b3JzIEFnZW50czEpMCcGA1UEBRMgZmE3OGQyNDI5NjU0YTFkNjIwODNh
NzRlNjI2NWRkMDEwggGiMA0GCSqGSIb3DQEBAQUAA4IBjwAwggGKAoIBgQC7uOsk
VOq+BU7zm/b05DTbds/TPbi5ca7ZYBDRmurt7+7U6S6zYGBd8nboLdwXsrxaYFru
yRvfWdbAIV/JnnPINH/H0hFAkxacZwSa+S1YQEQkobVz188COdnsxASX7f4Sg+W9
uG/oY9AqaN9aNamBgOitpvE2EWYOpavYCypOgKa7RuBCe9+PUQdk6oeOPxE98v0p
BqbBtK2nZjy2c0ahoMNTskR2npPp38XMzKhjeagLF5YDi7U8mM1Cx65Sfs9IKCfN
ic9QFNh5JMdIymVf/M/T0tlBbp/I13OQy9gUFmMMYSJTvn8+TU08i9Jyzt1P/SXF
W6t6Wu5AOI52jZC4q6BloarqIlGjvDPuD/zaUWNFs191A92Zhe0MfATwU0Aoaho5
0xKTRzmFMBAzT9GIM/YD6qBDC+u6ToBz1Jm/FRfG3PXDrVV1vfFRgLr6JXwM9frK
RPgiKINo+XeeirqnS2LQIq/U9NUXnWUtyAoRIa7yRo8PCWOS/swbwiflDL0CAwEA
AaN/MH0wHwYDVR0jBBgwFoAUB8ZtMfuD4ydx0w7ZCSzi2xU0GywwDAYDVR0TAQH/
BAIwADAdBgNVHSUEFjAUBggrBgEFBQcDAgYIKwYBBQUHAwEwDgYDVR0PAQH/BAQD
AgWgMB0GA1UdDgQWBBTNqgaOq7V/2Jxol8jOSvf1Zs/A0DANBgkqhkiG9w0BAQsF
AAOCAYEAJXr/sFsNNYNJdnCq3OsuZA+6tyjHiKhL4wF8ENTdzs5iiUyAiPUayO7S
ntZN/1N8NLppm7jAYm8CwNTeghHHK2MYj9vPwlHpFWTy+ZLGqwmgyoyZFE3AG+T6
AFqQdjQLf5Znj/xCRK0Fcm9YjWzkyiLqNiP0KlLGMPJd+nERCr/H62rRmZrFCVjw
uIn+e20TsEPEXkcYuPsv+mvuhlTz4Z9EP9MAxJrkaGOTWQWZp64dSwdfAVg8fph/
UT8A5TTn6sghVpUaU3mXx2onkIgM6vmwfRJPZGEHFcYxv7/K4q0FLf0v527703so
3w22QkQPPlpxiSr/05YHVHQDo8TJkScwV8Uhew8NYw50pUiA9HTrENDKVPYIxayi
1GeMSt5/Py+KKKuwXMiXk5l+g+JRRbnfMXrnvIX3MG9I1tokpft4PdWYIe93uIbV
IoJB3XlIclHOP1WtELRLYm277MFyGg+H1XF+OZg7Il4G+ut6Ca66t1x6pkwLg7zY
FNfebnGA
-----END CERTIFICATE-----
