Certificate:
    Data:
        Version: 3 (0x2)
        Serial Number:
            a6:33:a4:97:a0:83:23:95:ca:dd:db:7a:e7:94:ac:b9
        Signature Algorithm: sha256WithRSAEncryption
        Issuer: O=Swaptacular Nodes Registry, OU=Creditors Agents/serialNumber=fa78d2429654a1d62083a74e6265dd01
        Validity
            Not Before: May 22 11:05:18 2025 GMT
            Not After : May 22 11:05:18 2026 GMT
        Subject: O=Swaptacular Nodes Registry, OU=Creditors Agents/serialNumber=fa78d2429654a1d62083a74e6265dd01
        Subject Public Key Info:
            Public Key Algorithm: rsaEncryption
                Public-Key: (3072 bit)
                Modulus:
                    00:bb:b8:eb:24:54:ea:be:05:4e:f3:9b:f6:f4:e4:
                    34:db:76:cf:d3:3d:b8:b9:71:ae:d9:60:10:d1:9a:
                    ea:ed:ef:ee:d4:e9:2e:b3:60:60:5d:f2:76:e8:2d:
                    dc:17:b2:bc:5a:60:5a:ee:c9:1b:df:59:d6:c0:21:
                    5f:c9:9e:73:c8:34:7f:c7:d2:11:40:93:16:9c:67:
                    04:9a:f9:2d:58:40:44:24:a1:b5:73:d7:cf:02:39:
                    d9:ec:c4:04:97:ed:fe:12:83:e5:bd:b8:6f:e8:63:
                    d0:2a:68:df:5a:35:a9:81:80:e8:ad:a6:f1:36:11:
                    66:0e:a5:ab:d8:0b:2a:4e:80:a6:bb:46:e0:42:7b:
                    df:8f:51:07:64:ea:87:8e:3f:11:3d:f2:fd:29:06:
                    a6:c1:b4:ad:a7:66:3c:b6:73:46:a1:a0:c3:53:b2:
                    44:76:9e:93:e9:df:c5:cc:cc:a8:63:79:a8:0b:17:
                    96:03:8b:b5:3c:98:cd:42:c7:ae:52:7e:cf:48:28:
                    27:cd:89:cf:50:14:d8:79:24:c7:48:ca:65:5f:fc:
                    cf:d3:d2:d9:41:6e:9f:c8:d7:73:90:cb:d8:14:16:
                    63:0c:61:22:53:be:7f:3e:4d:4d:3c:8b:d2:72:ce:
                    dd:4f:fd:25:c5:5b:ab:7a:5a:ee:40:38:8e:76:8d:
                    90:b8:ab:a0:65:a1:aa:ea:22:51:a3:bc:33:ee:0f:
                    fc:da:51:63:45:b3:5f:75:03:dd:99:85:ed:0c:7c:
                    04:f0:53:40:28:6a:1a:39:d3:12:93:47:39:85:30:
                    10:33:4f:d1:88:33:f6:03:ea:a0:43:0b:eb:ba:4e:
                    80:73:d4:99:bf:15:17:c6:dc:f5:c3:ad:55:75:bd:
                    f1:51:80:ba:fa:25:7c:0c:f5:fa:ca:44:f8:22:28:
                    83:68:f9:77:9e:8a:ba:a7:4b:62:d0:22:af:d4:f4:
                    d5:17:9d:65:2d:c8:0a:11:21:ae:f2:46:8f:0f:09:
                    63:92:fe:cc:1b:c2:27:e5:0c:bd
                Exponent: 65537 (0x10001)
        X509v3 extensions:
            X509v3 Authority Key Identifier: 
                07:C6:6D:31:FB:83:E3:27:71:D3:0E:D9:09:2C:E2:DB:15:34:1B:2C
            X509v3 Basic Constraints: critical
                CA:FALSE
            X509v3 Extended Key Usage: 
                TLS Web Client Authentication, TLS Web Server Authentication
            X509v3 Key Usage: critical
                Digital Signature, Key Encipherment
            X509v3 Subject Key Identifier: 
                CD:AA:06:8E:AB:B5:7F:D8:9C:68:97:C8:CE:4A:F7:F5:66:CF:C0:D0
    Signature Algorithm: sha256WithRSAEncryption
    Signature Value:
        0d:87:d9:f8:d6:ed:65:88:e1:d3:d5:00:36:8d:5b:f2:3e:7c:
        fd:52:27:dd:79:45:a1:ad:c4:97:b3:a9:b3:ce:96:96:64:30:
        a9:5c:8a:90:f8:b9:ce:21:cf:23:55:02:51:30:fa:47:1c:b1:
        7e:44:96:fa:98:76:fd:61:58:25:90:a6:7b:db:af:7f:0f:20:
        21:fa:01:9d:7d:fa:73:80:14:d5:a6:03:5f:a8:d3:ed:ed:84:
        ed:9f:97:4f:af:08:e3:55:69:2e:a5:8e:2a:e9:d7:6d:50:d7:
        16:b1:0e:d9:1c:99:99:a7:38:62:42:b7:d2:1e:54:64:c0:cc:
        30:32:45:a1:db:ba:2d:57:ec:e3:3d:6f:24:8b:ba:15:c9:44:
        d8:00:de:f8:0a:5e:97:80:fe:10:6a:08:83:c6:17:b1:5d:23:
        62:2d:df:36:d9:81:63:ae:13:da:0f:f4:29:23:b9:cb:1b:f7:
        a5:c9:13:1d:8d:4d:fd:3e:b3:42:da:c3:a1:79:3b:b3:6f:d1:
        90:d7:3f:dc:ec:f6:6e:61:b8:8e:4a:ff:42:4c:cf:d1:2b:ac:
        57:c8:7e:9f:58:99:74:6c:d0:84:ef:ed:a0:f7:4e:00:1f:31:
        75:bd:41:0d:a8:a0:d1:9d:0f:cb:1e:e1:69:37:b7:8e:58:7d:
        6c:04:e7:a3:bb:d0:5e:e8:df:d2:77:ec:18:39:40:19:b8:4f:
        ed:4f:3f:c4:30:a6:48:a5:9d:d6:f2:ff:dd:84:b6:1e:43:5d:
        13:5f:27:05:ca:a5:f1:4d:e4:ed:2d:8d:04:4d:92:25:57:87:
        54:de:27:d2:a4:8e:75:51:74:4c:a8:73:4f:b6:ea:f1:64:82:
        0c:74:8b:49:dd:50:d6:6c:a5:27:cc:1f:eb:cd:9a:41:b6:9b:
        cd:53:89:c4:a5:c5:a7:e6:8c:bc:ed:be:38:30:46:8d:dd:7e:
        94:d9:57:9e:87:9c:9c:1f:c5:1e:2d:2c:15:df:8f:52:a0:c1:
        21:91:cf:9e:73:58
-----BEGIN CERTIFICATE-----
MIIE4DCCA0igAwIBAgIRAKYzpJeggyOVyt3beueUrLkwDQYJKoZIhvcNAQELBQAw
azEjMCEGA1UECgwaU3dhcHRhY3VsYXIgTm9kZXMgUmVnaXN0cnkxGTAXBgNVBAsM
EENyZWRpdG9ycyBBZ2VudHMxKTAnBgNVBAUTIGZhNzhkMjQyOTY1NGExZDYyMDgz
YTc0ZTYyNjVkZDAxMB4XDTI1MDUyMjExMDUxOFoXDTI2MDUyMjExMDUxOFowazEj
MCEGA1UECgwaU3dhcHRhY3VsYXIgTm9kZXMgUmVnaXN0cnkxGTAXBgNVBAsMEENy
ZWRpdG9ycyBBZ2VudHMxKTAnBgNVBAUTIGZhNzhkMjQyOTY1NGExZDYyMDgzYTc0
ZTYyNjVkZDAxMIIBojANBgkqhkiG9w0BAQEFAAOCAY8AMIIBigKCAYEAu7jrJFTq
vgVO85v29OQ023bP0z24uXGu2WAQ0Zrq7e/u1Okus2BgXfJ26C3cF7K8WmBa7skb
31nWwCFfyZ5zyDR/x9IRQJMWnGcEmvktWEBEJKG1c9fPAjnZ7MQEl+3+EoPlvbhv
6GPQKmjfWjWpgYDorabxNhFmDqWr2AsqToCmu0bgQnvfj1EHZOqHjj8RPfL9KQam
wbStp2Y8tnNGoaDDU7JEdp6T6d/FzMyoY3moCxeWA4u1PJjNQseuUn7PSCgnzYnP
UBTYeSTHSMplX/zP09LZQW6fyNdzkMvYFBZjDGEiU75/Pk1NPIvScs7dT/0lxVur
elruQDiOdo2QuKugZaGq6iJRo7wz7g/82lFjRbNfdQPdmYXtDHwE8FNAKGoaOdMS
k0c5hTAQM0/RiDP2A+qgQwvruk6Ac9SZvxUXxtz1w61Vdb3xUYC6+iV8DPX6ykT4
IiiDaPl3noq6p0ti0CKv1PTVF51lLcgKESGu8kaPDwljkv7MG8In5Qy9AgMBAAGj
fzB9MB8GA1UdIwQYMBaAFAfGbTH7g+MncdMO2Qks4tsVNBssMAwGA1UdEwEB/wQC
MAAwHQYDVR0lBBYwFAYIKwYBBQUHAwIGCCsGAQUFBwMBMA4GA1UdDwEB/wQEAwIF
oDAdBgNVHQ4EFgQUzaoGjqu1f9icaJfIzkr39WbPwNAwDQYJKoZIhvcNAQELBQAD
ggGBAA2H2fjW7WWI4dPVADaNW/I+fP1SJ915RaGtxJezqbPOlpZkMKlcipD4uc4h
zyNVAlEw+kccsX5ElvqYdv1hWCWQpnvbr38PICH6AZ19+nOAFNWmA1+o0+3thO2f
l0+vCONVaS6ljirp121Q1xaxDtkcmZmnOGJCt9IeVGTAzDAyRaHbui1X7OM9bySL
uhXJRNgA3vgKXpeA/hBqCIPGF7FdI2It3zbZgWOuE9oP9Ckjucsb96XJEx2NTf0+
s0Law6F5O7Nv0ZDXP9zs9m5huI5K/0JMz9ErrFfIfp9YmXRs0ITv7aD3TgAfMXW9
QQ2ooNGdD8se4Wk3t45YfWwE56O70F7o39J37Bg5QBm4T+1PP8Qwpkilndby/92E
th5DXRNfJwXKpfFN5O0tjQRNkiVXh1TeJ9KkjnVRdEyoc0+26vFkggx0i0ndUNZs
pSfMH+vNmkG2m81TicSlxafmjLztvjgwRo3dfpTZV56HnJwfxR4tLBXfj1KgwSGR
z55zWA==
-----END CERTIFICATE-----
