Certificate:
    Data:
        Version: 3 (0x2)
        Serial Number:
            a6:33:a4:97:a0:83:23:95:ca:dd:db:7a:e7:94:ac:b7
        Signature Algorithm: sha256WithRSAEncryption
        Issuer: O=Swaptacular Nodes Registry, OU=Creditors Agents/serialNumber=fa78d2429654a1d62083a74e6265dd01
        Validity
            Not Before: Mar 19 11:58:55 2025 GMT
            Not After : Jul 20 11:58:55 3024 GMT
        Subject: O=Swaptacular Nodes Registry, OU=Creditors Agents/serialNumber=fa78d2429654a1d62083a74e6265dd01
        Subject Public Key Info:
            Public Key Algorithm: rsaEncryption
                Public-Key: (3072 bit)
                Modulus:
                    00:a7:29:fc:ce:ee:de:8c:65:d3:98:33:4a:b7:6f:
                    5d:12:78:fc:e5:31:aa:5e:e0:e0:6d:01:d9:8c:a2:
                    2d:2f:81:03:9d:d6:0b:dd:7a:14:86:84:2f:ae:9a:
                    9b:25:36:68:f8:8e:d3:3e:94:48:cd:6f:ce:8a:cc:
                    3c:8e:49:9a:7b:a3:d3:5e:55:34:3b:54:73:d3:f4:
                    ed:ef:91:8c:d6:e2:83:d3:ee:46:e4:b3:27:9c:74:
                    96:7d:8d:50:20:d9:85:bf:51:1d:49:f9:54:fa:49:
                    5c:7b:63:4d:2c:3d:01:43:d9:21:69:f6:dc:b5:6f:
                    52:f9:dc:77:50:24:2b:74:03:ce:02:c8:b2:3e:90:
                    5b:82:fc:9d:28:14:5b:fd:bf:21:36:3e:8c:fb:d3:
                    05:90:c8:9d:12:55:52:17:96:40:3d:70:2e:fb:57:
                    49:a4:eb:23:fa:70:c8:21:02:11:93:ef:69:ce:cc:
                    7c:6c:d0:df:13:a1:0a:44:b6:7d:a6:0d:34:34:eb:
                    b2:67:90:c5:c5:ae:8f:f5:a0:97:d2:94:54:66:f6:
                    f9:60:a2:92:b1:c7:ce:bd:ef:49:9a:56:9e:94:2e:
                    b5:51:7c:3d:da:f9:ea:68:d6:94:ae:9e:d7:cd:0a:
                    34:f1:6d:9b:a5:b6:f2:fa:ea:d8:11:bd:17:19:7c:
                    de:09:4a:44:ee:c3:66:38:50:7f:bf:97:21:b7:f5:
                    ab:2e:f9:53:d9:c2:08:01:8c:79:6e:f4:94:e7:27:
                    00:ac:20:49:a5:cb:18:58:fe:8e:4b:27:80:2a:32:
                    aa:93:b5:08:21:ab:f4:5e:a8:07:eb:bc:e7:89:01:
                    a3:fd:43:ba:35:62:4c:6f:c1:2a:df:10:bf:89:68:
                    ee:d5:4c:ea:c5:b4:c3:9d:e6:36:3d:c3:3a:1f:e1:
                    e7:2f:94:5d:7f:38:4b:fe:77:aa:0d:44:7f:6e:36:
                    8a:b4:39:a0:3c:1f:37:73:f8:7e:02:bf:5c:4c:e1:
                    9e:71:0c:5f:8e:3e:7d:80:99:af
                Exponent: 65537 (0x10001)
        X509v3 extensions:
            X509v3 Basic Constraints: critical
                CA:TRUE, pathlen:1
            X509v3 Key Usage: critical
                Certificate Sign, CRL Sign
            X509v3 Subject Key Identifier: 
                07:C6:6D:31:FB:83:E3:27:71:D3:0E:D9:09:2C:E2:DB:15:34:1B:2C
    Signature Algorithm: sha256WithRSAEncryption
    Signature Value:
        04:6a:da:f6:d0:c5:d9:d3:86:f6:f2:3c:2e:fd:64:cf:99:d8:
        41:7e:0b:27:de:7b:8b:8a:32:f9:57:fd:ba:8d:1d:fd:fe:c9:
        3d:0a:9c:b0:ab:c5:9d:4c:32:d8:18:d3:ee:9b:30:d7:ef:2d:
        d5:5f:a4:1e:ef:7c:82:7e:50:db:05:48:61:1e:4a:9e:14:9b:
        a6:c2:45:71:bb:13:e8:10:c8:61:29:93:31:60:b6:12:cd:ef:
        91:6e:b3:cd:6c:a6:8e:d6:23:48:b8:3e:b2:ef:bb:5a:fa:22:
        c8:61:53:7f:e6:83:e6:ab:ad:f0:1d:e5:9f:22:d8:c5:8f:fb:
        cb:67:35:1f:01:9f:fa:e8:a9:4f:e5:ed:d5:28:9d:6b:2c:5d:
        8b:05:ab:66:05:c1:79:f7:89:19:b3:b8:d5:8a:8c:f6:a3:ef:
        5f:f2:0c:83:39:c0:d1:3f:17:21:02:83:c1:de:15:ed:79:4a:
        25:e1:6b:d1:29:a2:b3:45:87:08:73:dd:2b:94:2f:8c:90:65:
        6e:f5:13:27:5d:af:d3:65:00:11:7b:2e:f8:3f:e7:a4:b4:3d:
        cc:63:fb:ec:be:23:7d:ba:9c:a8:cf:b5:0b:d7:89:f5:fa:f8:
        de:bf:3e:70:20:2d:7d:a1:76:df:5a:b0:97:45:77:02:20:d9:
        d6:7e:29:37:2e:70:df:67:8a:ed:c5:f6:2f:f8:36:4b:0b:15:
        5d:90:e5:27:1d:0c:29:50:e9:51:0c:35:85:3c:74:fc:37:a7:
        10:cd:e3:b6:f9:c5:6f:5f:a6:f5:57:67:98:72:43:21:53:fe:
        95:36:0c:75:2b:ed:c9:49:86:b1:c3:26:83:fb:52:de:d6:d7:
        53:bc:cc:e9:cc:98:94:6b:d1:da:4f:33:07:c6:5f:6b:0d:60:
        15:ec:5c:70:91:2b:e6:5d:65:c7:8e:78:17:ba:37:18:2c:a9:
        ae:fa:0c:5a:c4:73:ac:b5:82:cc:3a:77:b3:41:41:18:7b:f9:
        f1:89:76:c5:6f:9f
-----BEGIN CERTIFICATE-----
MIIEqDCCAxCgAwIBAgIRAKYzpJeggyOVyt3beueUrLcwDQYJKoZIhvcNAQELBQAw
azEjMCEGA1UECgwaU3dhcHRhY3VsYXIgTm9kZXMgUmVnaXN0cnkxGTAXBgNVBAsM
EENyZWRpdG9ycyBBZ2VudHMxKTAnBgNVBAUTIGZhNzhkMjQyOTY1NGExZDYyMDgz
YTc0ZTYyNjVkZDAxMCAXDTI1MDMxOTExNTg1NVoYDzMwMjQwNzIwMTE1ODU1WjBr
MSMwIQYDVQQKDBpTd2FwdGFjdWxhciBOb2RlcyBSZWdpc3RyeTEZMBcGA1UECwwQ
Q3JlZGl0b3JzIEFnZW50czEpMCcGA1UEBRMgZmE3OGQyNDI5NjU0YTFkNjIwODNh
NzRlNjI2NWRkMDEwggGiMA0GCSqGSIb3DQEBAQUAA4IBjwAwggGKAoIBgQCnKfzO
7t6MZdOYM0q3b10SePzlMape4OBtAdmMoi0vgQOd1gvdehSGhC+umpslNmj4jtM+
lEjNb86KzDyOSZp7o9NeVTQ7VHPT9O3vkYzW4oPT7kbksyecdJZ9jVAg2YW/UR1J
+VT6SVx7Y00sPQFD2SFp9ty1b1L53HdQJCt0A84CyLI+kFuC/J0oFFv9vyE2Poz7
0wWQyJ0SVVIXlkA9cC77V0mk6yP6cMghAhGT72nOzHxs0N8ToQpEtn2mDTQ067Jn
kMXFro/1oJfSlFRm9vlgopKxx86970maVp6ULrVRfD3a+epo1pSuntfNCjTxbZul
tvL66tgRvRcZfN4JSkTuw2Y4UH+/lyG39asu+VPZwggBjHlu9JTnJwCsIEmlyxhY
/o5LJ4AqMqqTtQghq/ReqAfrvOeJAaP9Q7o1YkxvwSrfEL+JaO7VTOrFtMOd5jY9
wzof4ecvlF1/OEv+d6oNRH9uNoq0OaA8Hzdz+H4Cv1xM4Z5xDF+OPn2Ama8CAwEA
AaNFMEMwEgYDVR0TAQH/BAgwBgEB/wIBATAOBgNVHQ8BAf8EBAMCAQYwHQYDVR0O
BBYEFAfGbTH7g+MncdMO2Qks4tsVNBssMA0GCSqGSIb3DQEBCwUAA4IBgQAEatr2
0MXZ04b28jwu/WTPmdhBfgsn3nuLijL5V/26jR39/sk9Cpywq8WdTDLYGNPumzDX
7y3VX6Qe73yCflDbBUhhHkqeFJumwkVxuxPoEMhhKZMxYLYSze+RbrPNbKaO1iNI
uD6y77ta+iLIYVN/5oPmq63wHeWfItjFj/vLZzUfAZ/66KlP5e3VKJ1rLF2LBatm
BcF594kZs7jVioz2o+9f8gyDOcDRPxchAoPB3hXteUol4WvRKaKzRYcIc90rlC+M
kGVu9RMnXa/TZQARey74P+ektD3MY/vsviN9upyoz7UL14n1+vjevz5wIC19oXbf
WrCXRXcCINnWfik3LnDfZ4rtxfYv+DZLCxVdkOUnHQwpUOlRDDWFPHT8N6cQzeO2
+cVvX6b1V2eYckMhU/6VNgx1K+3JSYaxwyaD+1Le1tdTvMzpzJiUa9HaTzMHxl9r
DWAV7FxwkSvmXWXHjngXujcYLKmu+gxaxHOstYLMOnezQUEYe/nxiXbFb58=
-----END CERTIFICATE-----
