Certificate:
    Data:
        Version: 3 (0x2)
        Serial Number:
            a6:33:a4:97:a0:83:23:95:ca:dd:db:7a:e7:94:ac:b8
        Signature Algorithm: sha256WithRSAEncryption
        Issuer: O=Swaptacular Nodes Registry, OU=Creditors Agents/serialNumber=fa78d2429654a1d62083a74e6265dd01
        Validity
            Not Before: Mar 19 12:00:38 2025 GMT
            Not After : Jul 20 12:00:38 3024 GMT
        Subject: O=Swaptacular Nodes Registry, OU=Accounting Authorities/serialNumber=0abcdef1
        Subject Public Key Info:
            Public Key Algorithm: rsaEncryption
                Public-Key: (3072 bit)
                Modulus:
                    00:89:7c:35:af:c3:e2:f1:39:6d:44:09:ca:68:1d:
                    d1:70:fb:28:06:e1:74:9e:56:b0:7d:24:55:5d:21:
                    ca:eb:54:7a:88:5c:33:e3:bc:92:97:ad:0d:93:69:
                    d7:9a:4c:0d:a2:d5:75:2f:f9:7c:09:af:66:4d:dc:
                    e6:7a:74:62:f1:75:d3:d0:0f:86:46:e9:c8:93:e2:
                    22:b8:4c:e8:c0:89:ab:84:f2:04:0f:1d:1d:6e:cd:
                    28:68:2b:64:c6:7e:e6:17:99:ad:a5:3a:70:78:b3:
                    fc:39:4e:27:fe:6a:7e:4d:cc:74:6e:0f:30:30:5c:
                    73:d5:7d:57:9b:f6:48:08:3b:80:3b:eb:50:b3:b7:
                    07:53:3f:21:0c:d2:3a:1c:a6:8c:f4:dc:28:78:0e:
                    06:2f:c1:fd:ab:f8:ff:b5:c7:61:e6:e6:1b:62:a4:
                    d8:a0:92:17:70:b5:dc:39:ca:35:2e:4d:1d:f2:94:
                    52:1e:a2:4c:1c:21:9a:26:61:c1:86:3b:ae:a2:ec:
                    45:86:63:38:6b:f3:5d:6e:02:98:0b:24:7e:58:b6:
                    a7:85:9c:3d:39:e2:26:be:01:b3:9d:09:71:2b:d5:
                    95:ef:a6:89:75:56:aa:3a:a7:f4:74:d7:9c:c1:8c:
                    c4:3c:c1:c7:73:77:e3:cc:4b:31:ef:5c:c2:cc:8c:
                    6e:8f:3a:14:6f:43:6c:b2:dd:c9:83:a4:f3:c8:cc:
                    c1:ce:70:dc:57:85:d6:ab:54:b2:83:b7:cf:d2:26:
                    5a:38:3b:e6:ee:01:b1:dd:89:bd:29:45:7a:6a:6c:
                    f4:ba:ae:31:70:02:b0:7d:dc:7e:d3:39:c6:3e:c6:
                    5d:c4:18:0b:23:cf:ed:70:44:f9:5b:8b:54:cd:f5:
                    73:51:c9:02:b1:2c:ad:b5:42:96:2a:97:88:98:a0:
                    3f:16:69:ce:a2:59:00:c3:28:d6:93:af:cf:18:15:
                    4b:be:30:c5:1f:66:e4:3e:d0:c9:97:43:5c:80:ff:
                    07:ea:c8:2f:69:8e:6e:2d:91:cd
                Exponent: 65537 (0x10001)
        X509v3 extensions:
            X509v3 Authority Key Identifier: 
                07:C6:6D:31:FB:83:E3:27:71:D3:0E:D9:09:2C:E2:DB:15:34:1B:2C
            X509v3 Basic Constraints: critical
                CA:TRUE, pathlen:0
            X509v3 Key Usage: critical
                Certificate Sign, CRL Sign
            X509v3 Name Constraints: critical
                Permitted:
                  DirName:O = Swaptacular Nodes Registry, OU = Accounting Authorities, serialNumber = 0abcdef1
            X509v3 Subject Key Identifier: 
                33:CA:B1:03:F6:7C:21:63:DA:13:66:22:6A:1B:4A:94:EC:A9:7E:B8
            Netscape Comment: 
                ..
    Signature Algorithm: sha256WithRSAEncryption
    Signature Value:
        53:16:d0:99:45:b2:92:31:b8:d3:cc:37:e4:71:06:4f:20:de:
        d4:46:27:f3:21:3d:f9:42:72:12:a3:bf:c2:f3:65:af:71:50:
        7a:a2:c0:19:f9:2f:4c:9e:b4:33:6c:ba:dd:d7:42:24:51:a7:
        c8:26:92:14:30:61:72:55:5b:c9:a5:42:f7:58:de:cc:bc:a5:
        2c:e7:51:a3:a7:65:36:30:62:eb:ed:90:46:54:ac:d8:4f:a5:
        d5:84:e4:fb:ba:47:f5:9a:ef:6b:4b:2c:c1:8b:1e:8f:b5:8f:
        41:eb:f5:fa:6a:2c:1d:53:a1:31:63:03:f7:78:cd:50:1e:2b:
        95:09:2f:74:22:03:34:fa:74:b1:5a:74:dd:17:1d:ad:38:30:
        d5:c2:23:bf:c2:96:f3:43:b4:c9:3f:4a:10:13:c2:d8:80:a9:
        d5:6a:bb:b7:88:c9:67:99:fd:c8:ee:bc:37:59:c3:87:64:68:
        d6:5c:81:18:ca:4d:15:00:5d:a9:c0:68:69:1a:ec:3c:f3:df:
        e5:dc:00:31:1b:79:8d:76:d3:69:24:cd:b5:ce:c7:74:e5:03:
        79:86:1d:c1:bc:40:2a:d1:08:bf:a9:e3:fe:a8:0d:7a:a1:e9:
        6d:20:7d:9b:97:1b:ff:85:78:46:1a:bf:91:c5:33:18:d5:5e:
        0b:3c:4e:85:b5:e9:7f:9a:db:6b:fb:07:ec:2c:b0:09:dc:f5:
        38:af:b6:c9:01:22:60:91:27:76:96:c7:54:cd:1d:a6:d9:70:
        d2:95:ad:aa:96:d1:c4:4e:03:0a:4d:b1:8b:73:e9:e3:0e:69:
        55:09:bd:36:17:c3:47:e4:a0:93:00:57:b4:d2:4c:a3:37:4a:
        70:5b:a2:97:17:f0:6f:91:17:bc:c7:f5:1c:f7:b3:67:a6:3a:
        05:bd:63:b6:e2:6e:8e:35:b9:d4:c2:77:c2:fd:2b:83:61:35:
        e1:53:04:6d:b8:ea:31:db:e0:db:c7:58:31:9c:53:47:24:fa:
        62:0a:ec:b1:e6:d4
-----BEGIN CERTIFICATE-----
MIIFOTCCA6GgAwIBAgIRAKYzpJeggyOVyt3beueUrLgwDQYJKoZIhvcNAQELBQAw
azEjMCEGA1UECgwaU3dhcHRhY3VsYXIgTm9kZXMgUmVnaXN0cnkxGTAXBgNVBAsM
EENyZWRpdG9ycyBBZ2VudHMxKTAnBgNVBAUTIGZhNzhkMjQyOTY1NGExZDYyMDgz
YTc0ZTYyNjVkZDAxMCAXDTI1MDMxOTEyMDAzOFoYDzMwMjQwNzIwMTIwMDM4WjBZ
MSMwIQYDVQQKDBpTd2FwdGFjdWxhciBOb2RlcyBSZWdpc3RyeTEfMB0GA1UECwwW
QWNjb3VudGluZyBBdXRob3JpdGllczERMA8GA1UEBRMIMGFiY2RlZjEwggGiMA0G
CSqGSIb3DQEBAQUAA4IBjwAwggGKAoIBgQCJfDWvw+LxOW1ECcpoHdFw+ygG4XSe
VrB9JFVdIcrrVHqIXDPjvJKXrQ2TadeaTA2i1XUv+XwJr2ZN3OZ6dGLxddPQD4ZG
6ciT4iK4TOjAiauE8gQPHR1uzShoK2TGfuYXma2lOnB4s/w5Tif+an5NzHRuDzAw
XHPVfVeb9kgIO4A761CztwdTPyEM0jocpoz03Ch4DgYvwf2r+P+1x2Hm5htipNig
khdwtdw5yjUuTR3ylFIeokwcIZomYcGGO66i7EWGYzhr811uApgLJH5YtqeFnD05
4ia+AbOdCXEr1ZXvpol1Vqo6p/R015zBjMQ8wcdzd+PMSzHvXMLMjG6POhRvQ2yy
3cmDpPPIzMHOcNxXhdarVLKDt8/SJlo4O+buAbHdib0pRXpqbPS6rjFwArB93H7T
OcY+xl3EGAsjz+1wRPlbi1TN9XNRyQKxLK21QpYql4iYoD8Wac6iWQDDKNaTr88Y
FUu+MMUfZuQ+0MmXQ1yA/wfqyC9pjm4tkc0CAwEAAaOB5zCB5DAfBgNVHSMEGDAW
gBQHxm0x+4PjJ3HTDtkJLOLbFTQbLDASBgNVHRMBAf8ECDAGAQH/AgEAMA4GA1Ud
DwEB/wQEAwIBBjBtBgNVHR4BAf8EYzBhoF8wXaRbMFkxIzAhBgNVBAoMGlN3YXB0
YWN1bGFyIE5vZGVzIFJlZ2lzdHJ5MR8wHQYDVQQLDBZBY2NvdW50aW5nIEF1dGhv
cml0aWVzMREwDwYDVQQFEwgwYWJjZGVmMTAdBgNVHQ4EFgQUM8qxA/Z8IWPaE2Yi
ahtKlOypfrgwDwYJYIZIAYb4QgENBAIWADANBgkqhkiG9w0BAQsFAAOCAYEAUxbQ
mUWykjG408w35HEGTyDe1EYn8yE9+UJyEqO/wvNlr3FQeqLAGfkvTJ60M2y63ddC
JFGnyCaSFDBhclVbyaVC91jezLylLOdRo6dlNjBi6+2QRlSs2E+l1YTk+7pH9Zrv
a0sswYsej7WPQev1+mosHVOhMWMD93jNUB4rlQkvdCIDNPp0sVp03RcdrTgw1cIj
v8KW80O0yT9KEBPC2ICp1Wq7t4jJZ5n9yO68N1nDh2Ro1lyBGMpNFQBdqcBoaRrs
PPPf5dwAMRt5jXbTaSTNtc7HdOUDeYYdwbxAKtEIv6nj/qgNeqHpbSB9m5cb/4V4
Rhq/kcUzGNVeCzxOhbXpf5rba/sH7CywCdz1OK+2yQEiYJEndpbHVM0dptlw0pWt
qpbRxE4DCk2xi3Pp4w5pVQm9NhfDR+SgkwBXtNJMozdKcFuilxfwb5EXvMf1HPez
Z6Y6Bb1jtuJujjW51MJ3wv0rg2E14VMEbbjqMdvg28dYMZxTRyT6YgrssebU
-----END CERTIFICATE-----
