Certificate:
    Data:
        Version: 3 (0x2)
        Serial Number:
            2b:1c:b6:c9:4d:56:dd:c3:15:68:bd:e1:a2:48:fb:88
        Signature Algorithm: sha256WithRSAEncryption
        Issuer: O=Swaptacular Nodes Registry, OU=Accounting Authorities/serialNumber=0abcdef1
        Validity
            Not Before: Jul 23 12:41:54 2025 GMT
            Not After : Jul 23 12:41:54 2026 GMT
        Subject: O=Swaptacular Nodes Registry, OU=Accounting Authorities/serialNumber=0abcdef1
        Subject Public Key Info:
            Public Key Algorithm: rsaEncryption
                Public-Key: (3072 bit)
                Modulus:
                    00:d1:ca:6e:e6:95:69:66:69:aa:e4:0f:70:49:c9:
                    6b:0e:dd:0b:b9:77:fd:9f:b2:6b:7f:83:64:cd:93:
                    c1:34:e4:e8:8b:85:bf:13:7a:53:23:cd:f9:92:b1:
                    04:ef:a1:02:ee:56:7a:84:3b:43:bb:aa:f5:55:7b:
                    79:36:6a:85:c7:b3:6c:41:01:92:bd:3d:2b:30:14:
                    99:9e:20:48:2f:ed:4b:13:4a:79:3b:03:70:36:b4:
                    d0:ee:dc:60:d0:1a:4a:40:cb:f7:8f:43:b0:7e:61:
                    0c:25:8e:6c:50:a0:f1:f8:72:c4:c5:c9:23:7a:45:
                    81:1d:4a:59:52:69:17:23:52:c4:7c:f1:6a:c2:4f:
                    02:10:d3:ba:93:52:54:87:12:97:55:b3:bf:a9:17:
                    76:bf:b2:0a:70:be:82:cf:8a:0a:5c:18:a0:d3:7f:
                    c9:5d:6c:c9:f6:93:63:d1:cd:23:e5:5d:bd:52:06:
                    2c:8d:d4:c6:0d:df:60:a9:5c:96:ab:d6:ff:36:f7:
                    0a:ad:d0:78:bf:e1:de:4c:6e:5e:fb:75:0f:c0:09:
                    68:d2:60:01:6a:6d:1e:0a:cf:cc:48:e5:81:3e:1e:
                    d3:f8:39:66:4e:9f:74:db:c2:44:5a:16:a3:48:e2:
                    7f:00:08:31:53:a2:da:9c:47:d4:08:2d:ba:b1:be:
                    33:19:97:45:ce:e1:d2:33:dc:bf:bc:61:d3:b7:1d:
                    1f:0a:e5:fe:0c:b1:db:19:c9:13:32:43:5b:00:1e:
                    6b:c3:5f:6f:b1:44:f9:77:ef:2a:1b:15:5a:14:9d:
                    55:c3:da:99:53:a1:ac:ab:6b:7a:af:b5:9d:9a:49:
                    46:12:29:a4:66:3d:c8:ef:5e:a2:0e:f2:26:f7:e3:
                    02:ac:42:35:01:a6:47:da:30:79:75:8f:73:32:83:
                    53:e0:a9:f5:71:22:6b:b9:14:66:16:c0:81:27:96:
                    b3:05:6c:75:de:a9:91:17:99:f5:d4:57:6f:59:18:
                    93:e3:ff:67:53:58:fd:59:f4:b1
                Exponent: 65537 (0x10001)
        X509v3 extensions:
            X509v3 Authority Key Identifier: 
                33:CA:B1:03:F6:7C:21:63:DA:13:66:22:6A:1B:4A:94:EC:A9:7E:B8
            X509v3 Basic Constraints: critical
                CA:FALSE
            X509v3 Extended Key Usage: 
                TLS Web Client Authentication, TLS Web Server Authentication
            X509v3 Key Usage: critical
                Digital Signature, Key Encipherment
            X509v3 Subject Key Identifier: 
                29:86:F6:BA:7F:B5:7C:33:CB:B6:2B:B9:A3:9B:D4:BD:57:F4:3F:0B
    Signature Algorithm: sha256WithRSAEncryption
    Signature Value:
        7d:c1:a1:d5:17:ff:1a:47:f3:75:57:03:7c:67:22:5f:62:b2:
        b0:0a:4c:ca:bd:47:98:e4:a7:9b:60:33:f2:11:3c:27:70:a2:
        85:16:bc:b3:de:01:e7:c5:67:11:44:4e:92:08:ff:28:5f:7f:
        c9:9d:34:ae:da:57:2c:37:65:33:ec:13:5e:80:ae:3f:40:db:
        fb:8f:fd:78:16:1a:26:22:81:62:35:00:9b:43:bc:60:18:15:
        8e:ed:97:94:e1:0a:84:95:da:6d:85:f0:ec:9e:45:cc:a5:7d:
        48:d9:03:ab:e5:df:b6:f7:f5:cf:ef:b0:e5:0e:1d:f1:a2:35:
        d9:b9:ea:37:7c:87:9e:89:ac:b4:22:78:02:97:fa:45:ad:6a:
        76:16:22:3c:41:f3:6c:b8:b5:a2:3a:6f:10:f4:cd:df:6d:69:
        bb:b2:8b:4e:ab:6d:6c:1b:a0:71:04:0e:b6:86:e3:45:7e:14:
        88:93:0e:d2:87:21:ac:d0:9d:ee:17:4b:21:f1:73:ba:ec:2e:
        6b:c6:d4:2d:6a:c4:9f:2b:49:8e:d4:ae:21:7f:7c:17:fc:22:
        a7:f6:76:83:d2:76:22:dd:93:ab:c8:5c:5d:bc:4a:d7:50:d5:
        5a:b0:ce:3e:08:e4:fa:31:31:4d:2b:b1:0a:44:39:cb:62:91:
        d0:89:f6:d0:53:0e:24:9e:cb:21:d9:28:59:cc:b1:46:2c:e2:
        eb:6a:92:95:84:72:4c:d9:2e:d2:3b:de:1d:e1:ef:ad:f2:04:
        64:05:23:02:3f:31:92:d4:0f:99:da:82:02:56:06:f7:1f:a0:
        ed:86:53:b0:77:f7:c5:d0:ba:9e:70:0a:ae:26:6a:28:ba:98:
        0f:5c:cd:23:7b:4c:5a:94:11:93:29:47:51:76:d9:e7:79:4f:
        4c:a6:c9:3b:d6:14:e5:3a:a3:82:5c:a7:0e:46:3b:b1:d4:fb:
        7d:7d:51:66:6c:2a:8f:6a:22:16:c2:6f:62:41:a4:53:a8:e7:
        39:b8:80:30:2a:e0
-----BEGIN CERTIFICATE-----
MIIEuzCCAyOgAwIBAgIQKxy2yU1W3cMVaL3hokj7iDANBgkqhkiG9w0BAQsFADBZ
MSMwIQYDVQQKDBpTd2FwdGFjdWxhciBOb2RlcyBSZWdpc3RyeTEfMB0GA1UECwwW
QWNjb3VudGluZyBBdXRob3JpdGllczERMA8GA1UEBRMIMGFiY2RlZjEwHhcNMjUw
NzIzMTI0MTU0WhcNMjYwNzIzMTI0MTU0WjBZMSMwIQYDVQQKDBpTd2FwdGFjdWxh
ciBOb2RlcyBSZWdpc3RyeTEfMB0GA1UECwwWQWNjb3VudGluZyBBdXRob3JpdGll
czERMA8GA1UEBRMIMGFiY2RlZjEwggGiMA0GCSqGSIb3DQEBAQUAA4IBjwAwggGK
AoIBgQDRym7mlWlmaarkD3BJyWsO3Qu5d/2fsmt/g2TNk8E05OiLhb8TelMjzfmS
sQTvoQLuVnqEO0O7qvVVe3k2aoXHs2xBAZK9PSswFJmeIEgv7UsTSnk7A3A2tNDu
3GDQGkpAy/ePQ7B+YQwljmxQoPH4csTFySN6RYEdSllSaRcjUsR88WrCTwIQ07qT
UlSHEpdVs7+pF3a/sgpwvoLPigpcGKDTf8ldbMn2k2PRzSPlXb1SBiyN1MYN32Cp
XJar1v829wqt0Hi/4d5Mbl77dQ/ACWjSYAFqbR4Kz8xI5YE+HtP4OWZOn3TbwkRa
FqNI4n8ACDFTotqcR9QILbqxvjMZl0XO4dIz3L+8YdO3HR8K5f4MsdsZyRMyQ1sA
HmvDX2+xRPl37yobFVoUnVXD2plToayra3qvtZ2aSUYSKaRmPcjvXqIO8ib34wKs
QjUBpkfaMHl1j3Myg1PgqfVxImu5FGYWwIEnlrMFbHXeqZEXmfXUV29ZGJPj/2dT
WP1Z9LECAwEAAaN/MH0wHwYDVR0jBBgwFoAUM8qxA/Z8IWPaE2YiahtKlOypfrgw
DAYDVR0TAQH/BAIwADAdBgNVHSUEFjAUBggrBgEFBQcDAgYIKwYBBQUHAwEwDgYD
VR0PAQH/BAQDAgWgMB0GA1UdDgQWBBQphva6f7V8M8u2K7mjm9S9V/Q/CzANBgkq
hkiG9w0BAQsFAAOCAYEAfcGh1Rf/GkfzdVcDfGciX2KysApMyr1HmOSnm2Az8hE8
J3CihRa8s94B58VnEUROkgj/KF9/yZ00rtpXLDdlM+wTXoCuP0Db+4/9eBYaJiKB
YjUAm0O8YBgVju2XlOEKhJXabYXw7J5FzKV9SNkDq+Xftvf1z++w5Q4d8aI12bnq
N3yHnomstCJ4Apf6Ra1qdhYiPEHzbLi1ojpvEPTN321pu7KLTqttbBugcQQOtobj
RX4UiJMO0ochrNCd7hdLIfFzuuwua8bULWrEnytJjtSuIX98F/wip/Z2g9J2It2T
q8hcXbxK11DVWrDOPgjk+jExTSuxCkQ5y2KR0In20FMOJJ7LIdkoWcyxRizi62qS
lYRyTNku0jveHeHvrfIEZAUjAj8xktQPmdqCAlYG9x+g7YZTsHf3xdC6nnAKriZq
KLqYD1zNI3tMWpQRkylHUXbZ53lPTKbJO9YU5TqjglynDkY7sdT7fX1RZmwqj2oi
FsJvYkGkU6jnObiAMCrg
-----END CERTIFICATE-----
