Certificate:
    Data:
        Version: 3 (0x2)
        Serial Number:
            2b:1c:b6:c9:4d:56:dd:c3:15:68:bd:e1:a2:48:fb:85
        Signature Algorithm: sha256WithRSAEncryption
        Issuer: O=Swaptacular Nodes Registry, OU=Accounting Authorities/serialNumber=0abcdef1
        Validity
            Not Before: Mar 19 11:53:47 2025 GMT
            Not After : Mar 19 11:53:47 2026 GMT
        Subject: O=Swaptacular Nodes Registry, OU=Accounting Authorities/serialNumber=0abcdef1
        Subject Public Key Info:
            Public Key Algorithm: rsaEncryption
                Public-Key: (3072 bit)
                Modulus:
                    00:d9:6d:6e:ca:61:bb:02:72:c2:32:92:7e:b1:e8:
                    1c:97:2e:46:c7:0e:ce:ff:95:34:27:ae:72:53:c9:
                    90:29:de:5c:e6:2b:db:aa:0a:b5:a5:8c:78:1a:29:
                    ef:3d:bb:56:eb:d4:18:bb:4f:92:bc:0f:07:72:60:
                    bf:bb:f4:24:f0:64:b9:bd:c5:40:16:9c:76:db:80:
                    7f:09:d4:8f:84:d6:ce:43:42:ef:03:56:ce:25:00:
                    80:24:36:35:f4:5e:c1:fd:6e:13:2a:30:7d:64:a5:
                    e0:fd:a2:09:c2:f1:ce:e2:22:2b:0e:b7:71:14:dd:
                    db:51:b3:4d:06:ed:52:20:3d:5e:65:ec:1e:2b:d1:
                    63:2a:67:e4:f9:7a:7d:fa:44:61:06:ce:da:0c:b1:
                    1e:91:2b:29:87:d8:8b:cf:3e:36:85:90:47:14:91:
                    e6:c6:3b:c7:00:f7:bb:34:20:ae:da:02:2c:f2:16:
                    c4:1e:9c:30:b0:cc:d8:41:a0:a9:5b:8d:25:86:50:
                    4e:1d:25:7d:2b:99:43:30:73:a6:fb:fc:05:51:00:
                    78:18:33:5b:99:24:73:73:bc:dc:2c:0f:78:20:86:
                    d1:fb:a8:95:8e:3a:8d:2a:45:cd:7d:77:7f:41:5e:
                    4a:e8:c3:db:25:51:b8:de:c1:94:34:67:ac:ac:ff:
                    93:1e:a9:da:87:e4:90:ac:69:d3:78:b6:ab:36:91:
                    fe:e8:1f:3b:37:44:be:f2:1e:33:2e:5a:9b:c8:6f:
                    1f:76:ae:bd:75:0f:0b:09:ee:df:19:52:f9:4e:4e:
                    3d:20:b1:16:21:d9:c6:89:ba:e0:ce:da:d8:85:c1:
                    98:cc:34:74:d4:9a:73:07:80:8e:de:56:3c:3b:c4:
                    7a:1b:82:b3:c7:62:a0:23:17:58:83:12:0a:cf:50:
                    c2:73:a2:91:0a:9c:7c:e6:cb:0e:88:f2:44:28:9f:
                    50:45:9b:89:04:70:a2:77:53:10:1c:63:b0:05:fe:
                    86:a9:ce:1a:dd:34:bb:f1:0d:a5
                Exponent: 65537 (0x10001)
        X509v3 extensions:
            X509v3 Authority Key Identifier: 
                33:CA:B1:03:F6:7C:21:63:DA:13:66:22:6A:1B:4A:94:EC:A9:7E:B8
            X509v3 Basic Constraints: critical
                CA:FALSE
            X509v3 Extended Key Usage: 
                TLS Web Client Authentication, TLS Web Server Authentication
            X509v3 Key Usage: critical
                Digital Signature, Key Encipherment
            X509v3 Subject Key Identifier: 
                06:B2:5A:A5:B9:BD:A2:5F:04:B3:F2:F0:05:C1:82:D8:A2:F8:8B:35
    Signature Algorithm: sha256WithRSAEncryption
    Signature Value:
        39:d8:7a:c0:95:37:46:b1:f9:e7:92:5e:fe:69:9e:46:c5:5f:
        1e:5c:d7:a1:fb:f5:b6:38:3f:24:37:f2:52:2f:66:3e:94:32:
        78:78:81:2d:bb:78:21:f5:ae:37:be:bd:e3:9b:80:df:ed:18:
        72:50:e0:46:af:76:a0:7e:52:dd:58:17:65:a0:b3:e4:de:ea:
        90:c5:53:6b:e8:17:ca:61:d0:8a:54:ed:6a:67:74:4b:a4:22:
        b3:5e:cb:bb:55:56:a0:eb:39:72:8f:29:cd:3a:c8:54:f9:11:
        ca:9f:43:22:16:7b:87:df:cd:8c:8a:91:33:92:94:eb:78:dc:
        59:eb:af:68:59:e4:0c:62:2d:d3:ee:3e:f1:9b:54:6b:2c:5b:
        69:4f:46:a7:3c:8e:79:a3:36:0c:6a:f4:4d:e7:70:c2:9f:b2:
        3c:14:11:15:14:95:c7:e0:60:3d:83:73:01:18:b4:f9:96:5b:
        01:88:2a:63:51:aa:76:bf:9a:be:11:92:b5:5c:54:be:fb:f3:
        5a:7e:4b:30:62:a3:78:8f:d2:2b:5b:e2:1e:34:e9:d1:ed:ca:
        e0:8c:38:ca:e3:fa:79:f5:4e:97:66:02:15:81:f0:67:e6:7f:
        31:be:06:46:d4:e7:3d:fb:e3:26:7c:54:9c:7f:2d:94:76:e6:
        68:83:b9:9c:c3:b1:f0:50:ce:f6:ab:af:c1:74:cb:a3:70:7f:
        ab:68:6d:9e:e4:5d:06:61:d4:6a:82:e5:5f:e0:98:fa:72:f7:
        60:a0:60:57:01:34:fc:04:f4:fb:ac:fa:c1:c4:83:25:85:84:
        43:08:36:c6:fb:2a:72:9c:5e:6c:73:0a:4e:e2:39:53:a0:9f:
        30:a8:28:4b:0d:85:4b:66:76:f4:18:ad:ca:5f:6b:7a:d8:fd:
        f6:79:93:f9:59:17:b1:d5:c3:c2:04:d0:db:8d:ff:aa:4b:41:
        5f:8c:c9:a1:55:91:67:f9:21:27:c0:c9:f2:be:29:c3:e5:48:
        6e:c0:35:05:46:f4
-----BEGIN CERTIFICATE-----
MIIEuzCCAyOgAwIBAgIQKxy2yU1W3cMVaL3hokj7hTANBgkqhkiG9w0BAQsFADBZ
MSMwIQYDVQQKDBpTd2FwdGFjdWxhciBOb2RlcyBSZWdpc3RyeTEfMB0GA1UECwwW
QWNjb3VudGluZyBBdXRob3JpdGllczERMA8GA1UEBRMIMGFiY2RlZjEwHhcNMjUw
MzE5MTE1MzQ3WhcNMjYwMzE5MTE1MzQ3WjBZMSMwIQYDVQQKDBpTd2FwdGFjdWxh
ciBOb2RlcyBSZWdpc3RyeTEfMB0GA1UECwwWQWNjb3VudGluZyBBdXRob3JpdGll
czERMA8GA1UEBRMIMGFiY2RlZjEwggGiMA0GCSqGSIb3DQEBAQUAA4IBjwAwggGK
AoIBgQDZbW7KYbsCcsIykn6x6ByXLkbHDs7/lTQnrnJTyZAp3lzmK9uqCrWljHga
Ke89u1br1Bi7T5K8DwdyYL+79CTwZLm9xUAWnHbbgH8J1I+E1s5DQu8DVs4lAIAk
NjX0XsH9bhMqMH1kpeD9ognC8c7iIisOt3EU3dtRs00G7VIgPV5l7B4r0WMqZ+T5
en36RGEGztoMsR6RKymH2IvPPjaFkEcUkebGO8cA97s0IK7aAizyFsQenDCwzNhB
oKlbjSWGUE4dJX0rmUMwc6b7/AVRAHgYM1uZJHNzvNwsD3gghtH7qJWOOo0qRc19
d39BXkrow9slUbjewZQ0Z6ys/5MeqdqH5JCsadN4tqs2kf7oHzs3RL7yHjMuWpvI
bx92rr11DwsJ7t8ZUvlOTj0gsRYh2caJuuDO2tiFwZjMNHTUmnMHgI7eVjw7xHob
grPHYqAjF1iDEgrPUMJzopEKnHzmyw6I8kQon1BFm4kEcKJ3UxAcY7AF/oapzhrd
NLvxDaUCAwEAAaN/MH0wHwYDVR0jBBgwFoAUM8qxA/Z8IWPaE2YiahtKlOypfrgw
DAYDVR0TAQH/BAIwADAdBgNVHSUEFjAUBggrBgEFBQcDAgYIKwYBBQUHAwEwDgYD
VR0PAQH/BAQDAgWgMB0GA1UdDgQWBBQGslqlub2iXwSz8vAFwYLYoviLNTANBgkq
hkiG9w0BAQsFAAOCAYEAOdh6wJU3RrH555Je/mmeRsVfHlzXofv1tjg/JDfyUi9m
PpQyeHiBLbt4IfWuN76945uA3+0YclDgRq92oH5S3VgXZaCz5N7qkMVTa+gXymHQ
ilTtamd0S6Qis17Lu1VWoOs5co8pzTrIVPkRyp9DIhZ7h9/NjIqRM5KU63jcWeuv
aFnkDGIt0+4+8ZtUayxbaU9GpzyOeaM2DGr0Tedwwp+yPBQRFRSVx+BgPYNzARi0
+ZZbAYgqY1Gqdr+avhGStVxUvvvzWn5LMGKjeI/SK1viHjTp0e3K4Iw4yuP6efVO
l2YCFYHwZ+Z/Mb4GRtTnPfvjJnxUnH8tlHbmaIO5nMOx8FDO9quvwXTLo3B/q2ht
nuRdBmHUaoLlX+CY+nL3YKBgVwE0/AT0+6z6wcSDJYWEQwg2xvsqcpxebHMKTuI5
U6CfMKgoSw2FS2Z29Bityl9retj99nmT+VkXsdXDwgTQ243/qktBX4zJoVWRZ/kh
J8DJ8r4pw+VIbsA1BUb0
-----END CERTIFICATE-----
