Certificate:
    Data:
        Version: 3 (0x2)
        Serial Number:
            2b:1c:b6:c9:4d:56:dd:c3:15:68:bd:e1:a2:48:fb:86
        Signature Algorithm: sha256WithRSAEncryption
        Issuer: O=Swaptacular Nodes Registry, OU=Accounting Authorities/serialNumber=0abcdef1
        Validity
            Not Before: Mar 19 12:01:21 2025 GMT
            Not After : Jul 20 12:01:21 3024 GMT
        Subject: O=Swaptacular Nodes Registry, OU=Creditors Agents/serialNumber=fa78d2429654a1d62083a74e6265dd01
        Subject Public Key Info:
            Public Key Algorithm: rsaEncryption
                Public-Key: (3072 bit)
                Modulus:
                    00:a7:29:fc:ce:ee:de:8c:65:d3:98:33:4a:b7:6f:
                    5d:12:78:fc:e5:31:aa:5e:e0:e0:6d:01:d9:8c:a2:
                    2d:2f:81:03:9d:d6:0b:dd:7a:14:86:84:2f:ae:9a:
                    9b:25:36:68:f8:8e:d3:3e:94:48:cd:6f:ce:8a:cc:
                    3c:8e:49:9a:7b:a3:d3:5e:55:34:3b:54:73:d3:f4:
                    ed:ef:91:8c:d6:e2:83:d3:ee:46:e4:b3:27:9c:74:
                    96:7d:8d:50:20:d9:85:bf:51:1d:49:f9:54:fa:49:
                    5c:7b:63:4d:2c:3d:01:43:d9:21:69:f6:dc:b5:6f:
                    52:f9:dc:77:50:24:2b:74:03:ce:02:c8:b2:3e:90:
                    5b:82:fc:9d:28:14:5b:fd:bf:21:36:3e:8c:fb:d3:
                    05:90:c8:9d:12:55:52:17:96:40:3d:70:2e:fb:57:
                    49:a4:eb:23:fa:70:c8:21:02:11:93:ef:69:ce:cc:
                    7c:6c:d0:df:13:a1:0a:44:b6:7d:a6:0d:34:34:eb:
                    b2:67:90:c5:c5:ae:8f:f5:a0:97:d2:94:54:66:f6:
                    f9:60:a2:92:b1:c7:ce:bd:ef:49:9a:56:9e:94:2e:
                    b5:51:7c:3d:da:f9:ea:68:d6:94:ae:9e:d7:cd:0a:
                    34:f1:6d:9b:a5:b6:f2:fa:ea:d8:11:bd:17:19:7c:
                    de:09:4a:44:ee:c3:66:38:50:7f:bf:97:21:b7:f5:
                    ab:2e:f9:53:d9:c2:08:01:8c:79:6e:f4:94:e7:27:
                    00:ac:20:49:a5:cb:18:58:fe:8e:4b:27:80:2a:32:
                    aa:93:b5:08:21:ab:f4:5e:a8:07:eb:bc:e7:89:01:
                    a3:fd:43:ba:35:62:4c:6f:c1:2a:df:10:bf:89:68:
                    ee:d5:4c:ea:c5:b4:c3:9d:e6:36:3d:c3:3a:1f:e1:
                    e7:2f:94:5d:7f:38:4b:fe:77:aa:0d:44:7f:6e:36:
                    8a:b4:39:a0:3c:1f:37:73:f8:7e:02:bf:5c:4c:e1:
                    9e:71:0c:5f:8e:3e:7d:80:99:af
                Exponent: 65537 (0x10001)
        X509v3 extensions:
            X509v3 Authority Key Identifier: 
                33:CA:B1:03:F6:7C:21:63:DA:13:66:22:6A:1B:4A:94:EC:A9:7E:B8
            X509v3 Basic Constraints: critical
                CA:TRUE, pathlen:0
            X509v3 Key Usage: critical
                Certificate Sign, CRL Sign
            X509v3 Name Constraints: critical
                Permitted:
                  DirName:O = Swaptacular Nodes Registry, OU = Creditors Agents, serialNumber = fa78d2429654a1d62083a74e6265dd01
            X509v3 Subject Key Identifier: 
                07:C6:6D:31:FB:83:E3:27:71:D3:0E:D9:09:2C:E2:DB:15:34:1B:2C
            Netscape Comment: 
                Subnet: 000001
    Signature Algorithm: sha256WithRSAEncryption
    Signature Value:
        4b:18:f7:02:42:4b:12:44:04:4c:36:92:d5:78:3a:d2:81:2d:
        83:73:1b:7f:f0:02:e9:b2:62:df:9e:06:06:03:81:6a:49:9e:
        cf:51:78:8c:5e:64:d4:54:38:e1:1d:83:f0:d6:de:fe:bb:ed:
        84:43:f7:3f:56:72:97:8a:c2:6d:bf:65:50:20:5f:09:4e:a5:
        ac:19:cd:95:aa:c8:f2:c3:98:63:b5:21:74:b7:86:98:ea:0d:
        60:bc:03:5e:6d:a8:a4:98:39:4b:e8:9a:8e:98:b2:08:ca:fd:
        64:fb:68:b5:65:58:62:51:f2:ba:54:c0:e7:09:b5:b0:18:51:
        ac:79:28:e6:d5:eb:4b:c7:85:86:7f:78:7d:72:fd:c0:86:a1:
        ff:4f:30:54:f3:7d:7d:b7:1c:91:2c:d7:8a:ee:5f:95:88:c7:
        b5:3e:1a:d5:f0:66:c6:da:da:33:ac:1b:25:7a:e3:6c:bc:99:
        0e:f6:89:8d:6b:c1:24:69:64:4c:2c:f5:2d:39:a5:90:e5:06:
        58:b2:8a:43:84:43:79:86:a8:5d:df:d0:44:99:00:43:48:00:
        02:b8:9a:21:92:0d:d2:4f:41:67:ed:80:be:3e:ad:1b:65:26:
        49:e5:1b:3e:ec:00:15:cd:6f:a9:6f:7b:18:2c:f6:5c:ee:be:
        72:02:30:49:e5:50:e8:00:5c:63:4f:ed:14:a5:6c:da:20:7d:
        27:1d:22:36:74:8e:5e:32:a8:05:25:c1:b5:b5:b5:39:42:8f:
        a3:36:77:3c:97:a8:14:ce:1a:37:48:8c:3d:98:4c:62:79:ab:
        70:a1:0a:58:50:19:99:b5:8d:13:2f:27:1e:77:02:3b:f2:30:
        d3:f0:78:d9:ef:7e:1b:68:12:1a:28:41:48:ea:46:65:5b:62:
        ed:33:43:58:18:9e:99:1f:5a:a6:6e:8e:a8:de:04:2f:30:12:
        61:bb:9d:d6:6d:f4:10:28:71:04:dd:f2:62:36:bf:cd:8b:3e:
        a5:bc:fa:e6:3a:ec
-----BEGIN CERTIFICATE-----
MIIFWjCCA8KgAwIBAgIQKxy2yU1W3cMVaL3hokj7hjANBgkqhkiG9w0BAQsFADBZ
MSMwIQYDVQQKDBpTd2FwdGFjdWxhciBOb2RlcyBSZWdpc3RyeTEfMB0GA1UECwwW
QWNjb3VudGluZyBBdXRob3JpdGllczERMA8GA1UEBRMIMGFiY2RlZjEwIBcNMjUw
MzE5MTIwMTIxWhgPMzAyNDA3MjAxMjAxMjFaMGsxIzAhBgNVBAoMGlN3YXB0YWN1
bGFyIE5vZGVzIFJlZ2lzdHJ5MRkwFwYDVQQLDBBDcmVkaXRvcnMgQWdlbnRzMSkw
JwYDVQQFEyBmYTc4ZDI0Mjk2NTRhMWQ2MjA4M2E3NGU2MjY1ZGQwMTCCAaIwDQYJ
KoZIhvcNAQEBBQADggGPADCCAYoCggGBAKcp/M7u3oxl05gzSrdvXRJ4/OUxql7g
4G0B2YyiLS+BA53WC916FIaEL66amyU2aPiO0z6USM1vzorMPI5Jmnuj015VNDtU
c9P07e+RjNbig9PuRuSzJ5x0ln2NUCDZhb9RHUn5VPpJXHtjTSw9AUPZIWn23LVv
Uvncd1AkK3QDzgLIsj6QW4L8nSgUW/2/ITY+jPvTBZDInRJVUheWQD1wLvtXSaTr
I/pwyCECEZPvac7MfGzQ3xOhCkS2faYNNDTrsmeQxcWuj/Wgl9KUVGb2+WCikrHH
zr3vSZpWnpQutVF8Pdr56mjWlK6e180KNPFtm6W28vrq2BG9Fxl83glKRO7DZjhQ
f7+XIbf1qy75U9nCCAGMeW70lOcnAKwgSaXLGFj+jksngCoyqpO1CCGr9F6oB+u8
54kBo/1DujViTG/BKt8Qv4lo7tVM6sW0w53mNj3DOh/h5y+UXX84S/53qg1Ef242
irQ5oDwfN3P4fgK/XEzhnnEMX44+fYCZrwIDAQABo4IBCDCCAQQwHwYDVR0jBBgw
FoAUM8qxA/Z8IWPaE2YiahtKlOypfrgwEgYDVR0TAQH/BAgwBgEB/wIBADAOBgNV
HQ8BAf8EBAMCAQYwfwYDVR0eAQH/BHUwc6BxMG+kbTBrMSMwIQYDVQQKDBpTd2Fw
dGFjdWxhciBOb2RlcyBSZWdpc3RyeTEZMBcGA1UECwwQQ3JlZGl0b3JzIEFnZW50
czEpMCcGA1UEBRMgZmE3OGQyNDI5NjU0YTFkNjIwODNhNzRlNjI2NWRkMDEwHQYD
VR0OBBYEFAfGbTH7g+MncdMO2Qks4tsVNBssMB0GCWCGSAGG+EIBDQQQFg5TdWJu
ZXQ6IDAwMDAwMTANBgkqhkiG9w0BAQsFAAOCAYEASxj3AkJLEkQETDaS1Xg60oEt
g3Mbf/AC6bJi354GBgOBakmez1F4jF5k1FQ44R2D8Nbe/rvthEP3P1Zyl4rCbb9l
UCBfCU6lrBnNlarI8sOYY7UhdLeGmOoNYLwDXm2opJg5S+iajpiyCMr9ZPtotWVY
YlHyulTA5wm1sBhRrHko5tXrS8eFhn94fXL9wIah/08wVPN9fbcckSzXiu5flYjH
tT4a1fBmxtraM6wbJXrjbLyZDvaJjWvBJGlkTCz1LTmlkOUGWLKKQ4RDeYaoXd/Q
RJkAQ0gAAriaIZIN0k9BZ+2Avj6tG2UmSeUbPuwAFc1vqW97GCz2XO6+cgIwSeVQ
6ABcY0/tFKVs2iB9Jx0iNnSOXjKoBSXBtbW1OUKPozZ3PJeoFM4aN0iMPZhMYnmr
cKEKWFAZmbWNEy8nHncCO/Iw0/B42e9+G2gSGihBSOpGZVti7TNDWBiemR9apm6O
qN4ELzASYbud1m30EChxBN3yYja/zYs+pbz65jrs
-----END CERTIFICATE-----
