Certificate:
    Data:
        Version: 3 (0x2)
        Serial Number:
            2e:b1:51:02:fc:6d:1c:33:c6:0e:e9:b0:50:8b:bd:26
        Signature Algorithm: sha256WithRSAEncryption
        Issuer: O=Swaptacular Nodes Registry, OU=Accounting Authorities/serialNumber=deac00ed
        Validity
            Not Before: Feb 25 16:12:29 2025 GMT
            Not After : Feb 25 16:12:29 2026 GMT
        Subject: O=Swaptacular Nodes Registry, OU=Accounting Authorities/serialNumber=deac00ed
        Subject Public Key Info:
            Public Key Algorithm: rsaEncryption
                Public-Key: (3072 bit)
                Modulus:
                    00:d2:77:80:b5:9c:44:ca:88:c8:9f:19:0a:1a:8c:
                    f2:04:e6:66:79:ea:eb:a5:1b:39:7c:1e:9b:62:92:
                    9d:0b:9d:e9:7e:0d:25:61:c0:ef:34:e7:95:a1:ea:
                    a9:99:1d:eb:93:72:19:c8:36:0a:86:e8:2e:ed:69:
                    df:33:f7:e2:20:3f:1c:83:6c:6b:f4:8d:cf:fe:4e:
                    18:db:09:83:bc:0d:c0:2a:71:30:29:19:5c:ca:99:
                    97:18:98:a3:48:b7:79:7b:eb:e9:fc:db:35:d1:9e:
                    0b:04:51:aa:bf:c7:31:c9:cc:e3:46:b0:89:17:8e:
                    42:02:cc:c5:ac:55:ae:ae:7f:8d:4e:41:6d:5f:25:
                    e2:1e:d6:75:92:21:e1:98:e1:11:3b:f6:01:ea:66:
                    06:d7:16:85:60:02:bc:6b:0b:cb:ea:c0:6e:fa:a1:
                    95:1b:00:92:81:10:33:80:68:9d:91:85:d2:e6:7c:
                    63:4d:c7:f2:bb:b0:30:7f:18:b0:1a:d3:96:d5:0e:
                    45:ad:60:e1:8e:37:68:7d:e5:0a:85:de:a1:e0:1b:
                    88:ca:d7:1b:2a:37:6c:c7:09:b5:8f:24:d6:c3:7f:
                    33:f3:53:6e:12:a4:3e:f4:e7:75:8d:f7:57:b9:e5:
                    d6:2e:23:62:ff:51:ea:80:0e:37:d0:20:2b:ff:c5:
                    98:4f:f1:69:59:3a:93:c5:ea:57:10:c8:06:3e:ab:
                    2d:6c:c9:82:4a:e2:45:05:27:34:9d:61:49:e2:cc:
                    9e:aa:8f:bd:77:96:80:ca:e5:84:9c:38:19:5f:f5:
                    6b:74:5d:ee:17:ff:6f:d3:51:19:74:10:c7:22:ea:
                    41:06:98:74:e2:ff:e1:29:22:ac:e7:7f:b3:be:a4:
                    63:a2:3e:64:1d:b2:8a:12:30:c5:90:0d:6d:72:51:
                    14:a1:4a:27:c8:2e:89:4a:28:09:fb:65:ae:2b:d5:
                    ab:ac:bc:98:8a:95:64:1b:72:ab:b2:fe:ad:ad:dc:
                    8b:18:94:c7:e0:00:5d:c0:be:f5
                Exponent: 65537 (0x10001)
        X509v3 extensions:
            X509v3 Authority Key Identifier: 
                33:CA:B1:03:F6:7C:21:63:DA:13:66:22:6A:1B:4A:94:EC:A9:7E:B8
            X509v3 Basic Constraints: critical
                CA:FALSE
            X509v3 Extended Key Usage: 
                TLS Web Client Authentication, TLS Web Server Authentication
            X509v3 Key Usage: critical
                Digital Signature, Key Encipherment
            X509v3 Subject Key Identifier: 
                83:33:90:61:C6:EF:CD:19:8F:CC:6D:61:C7:88:21:08:44:B0:E5:7B
    Signature Algorithm: sha256WithRSAEncryption
    Signature Value:
        06:05:14:6a:c6:80:d4:d8:e3:58:a6:5d:d5:3e:c2:d7:55:2e:
        a3:8a:16:06:99:19:32:18:5f:f0:ec:65:45:45:8a:85:0c:ef:
        9f:4a:9b:06:cf:a9:cb:5e:87:f8:5c:cc:56:dc:74:16:49:b9:
        83:cc:4e:f2:79:fe:36:d3:af:a1:33:fd:22:0a:08:01:75:44:
        3f:22:42:9a:7c:3c:ed:ea:8a:46:0d:7f:45:47:96:45:e3:ba:
        64:9c:cf:7b:db:7e:a9:e2:70:11:fc:a9:81:8b:7d:f3:2c:d1:
        7e:fa:d8:11:d1:2a:68:15:de:5a:43:f9:d5:a6:7f:30:3d:9c:
        55:a3:70:c6:76:20:dd:d0:6b:fb:f0:4e:96:b8:c9:3d:69:fa:
        5c:2e:63:fa:28:41:a9:c9:09:04:b4:1d:7d:0a:12:a9:45:db:
        12:d9:cf:f8:14:3b:c9:6f:7a:55:46:bf:a7:4a:5d:a4:99:90:
        40:1a:6f:c3:88:cb:03:c0:02:c3:5d:ef:61:93:67:79:c1:2f:
        07:a1:9d:d8:c8:b1:18:79:db:32:21:2e:79:3e:23:9d:16:63:
        45:f9:37:17:61:da:55:36:b7:b7:16:f3:83:ea:42:64:9b:40:
        53:71:f2:a0:de:a6:3d:e7:2c:66:b6:01:79:c3:a7:40:3a:0f:
        0e:3a:38:47:16:b3:9b:11:c8:fd:15:31:f6:a2:5d:fd:d2:97:
        b4:78:ab:d4:18:22:f2:51:42:c5:be:f3:4f:e9:e0:9d:59:6b:
        f0:e8:ae:cb:f3:63:09:22:8f:24:cf:bd:cc:c3:42:5c:f5:b4:
        a5:a2:6f:09:e4:c6:af:91:bf:7f:74:0b:d9:49:4f:7c:83:70:
        a4:bd:a3:a9:fe:1f:5a:11:57:24:52:a8:74:18:09:f7:9a:eb:
        e9:46:e2:ea:63:f8:63:e6:b3:a7:10:c2:f6:24:5c:57:7c:44:
        48:2a:fa:30:1f:12:04:80:4f:09:94:a8:f8:07:b2:75:b0:d4:
        57:23:a7:67:40:cc
-----BEGIN CERTIFICATE-----
MIIEuzCCAyOgAwIBAgIQLrFRAvxtHDPGDumwUIu9JjANBgkqhkiG9w0BAQsFADBZ
MSMwIQYDVQQKDBpTd2FwdGFjdWxhciBOb2RlcyBSZWdpc3RyeTEfMB0GA1UECwwW
QWNjb3VudGluZyBBdXRob3JpdGllczERMA8GA1UEBRMIZGVhYzAwZWQwHhcNMjUw
MjI1MTYxMjI5WhcNMjYwMjI1MTYxMjI5WjBZMSMwIQYDVQQKDBpTd2FwdGFjdWxh
ciBOb2RlcyBSZWdpc3RyeTEfMB0GA1UECwwWQWNjb3VudGluZyBBdXRob3JpdGll
czERMA8GA1UEBRMIZGVhYzAwZWQwggGiMA0GCSqGSIb3DQEBAQUAA4IBjwAwggGK
AoIBgQDSd4C1nETKiMifGQoajPIE5mZ56uulGzl8Hptikp0Lnel+DSVhwO8055Wh
6qmZHeuTchnINgqG6C7tad8z9+IgPxyDbGv0jc/+ThjbCYO8DcAqcTApGVzKmZcY
mKNIt3l76+n82zXRngsEUaq/xzHJzONGsIkXjkICzMWsVa6uf41OQW1fJeIe1nWS
IeGY4RE79gHqZgbXFoVgArxrC8vqwG76oZUbAJKBEDOAaJ2RhdLmfGNNx/K7sDB/
GLAa05bVDkWtYOGON2h95QqF3qHgG4jK1xsqN2zHCbWPJNbDfzPzU24SpD7053WN
91e55dYuI2L/UeqADjfQICv/xZhP8WlZOpPF6lcQyAY+qy1syYJK4kUFJzSdYUni
zJ6qj713loDK5YScOBlf9Wt0Xe4X/2/TURl0EMci6kEGmHTi/+EpIqznf7O+pGOi
PmQdsooSMMWQDW1yURShSifILolKKAn7Za4r1ausvJiKlWQbcquy/q2t3IsYlMfg
AF3AvvUCAwEAAaN/MH0wHwYDVR0jBBgwFoAUM8qxA/Z8IWPaE2YiahtKlOypfrgw
DAYDVR0TAQH/BAIwADAdBgNVHSUEFjAUBggrBgEFBQcDAgYIKwYBBQUHAwEwDgYD
VR0PAQH/BAQDAgWgMB0GA1UdDgQWBBSDM5Bhxu/NGY/MbWHHiCEIRLDlezANBgkq
hkiG9w0BAQsFAAOCAYEABgUUasaA1NjjWKZd1T7C11Uuo4oWBpkZMhhf8OxlRUWK
hQzvn0qbBs+py16H+FzMVtx0Fkm5g8xO8nn+NtOvoTP9IgoIAXVEPyJCmnw87eqK
Rg1/RUeWReO6ZJzPe9t+qeJwEfypgYt98yzRfvrYEdEqaBXeWkP51aZ/MD2cVaNw
xnYg3dBr+/BOlrjJPWn6XC5j+ihBqckJBLQdfQoSqUXbEtnP+BQ7yW96VUa/p0pd
pJmQQBpvw4jLA8ACw13vYZNnecEvB6Gd2MixGHnbMiEueT4jnRZjRfk3F2HaVTa3
txbzg+pCZJtAU3HyoN6mPecsZrYBecOnQDoPDjo4RxazmxHI/RUx9qJd/dKXtHir
1Bgi8lFCxb7zT+ngnVlr8Oiuy/NjCSKPJM+9zMNCXPW0paJvCeTGr5G/f3QL2UlP
fINwpL2jqf4fWhFXJFKodBgJ95rr6Ubi6mP4Y+azpxDC9iRcV3xESCr6MB8SBIBP
CZSo+AeydbDUVyOnZ0DM
-----END CERTIFICATE-----
