Certificate:
    Data:
        Version: 3 (0x2)
        Serial Number:
            b1:0e:2c:98:e7:bd:91:a8:13:3d:92:70:9e:ca:ad:c4
        Signature Algorithm: sha256WithRSAEncryption
        Issuer: O=Swaptacular Nodes Registry, OU=Debtors Agents/serialNumber=2186d04f31f9d2499428ab07a7b47467
        Validity
            Not Before: Mar 29 14:57:30 2025 GMT
            Not After : Jul 30 14:57:30 3024 GMT
        Subject: O=Swaptacular Nodes Registry, OU=Accounting Authorities/serialNumber=0abcdef1
        Subject Public Key Info:
            Public Key Algorithm: rsaEncryption
                Public-Key: (3072 bit)
                Modulus:
                    00:89:7c:35:af:c3:e2:f1:39:6d:44:09:ca:68:1d:
                    d1:70:fb:28:06:e1:74:9e:56:b0:7d:24:55:5d:21:
                    ca:eb:54:7a:88:5c:33:e3:bc:92:97:ad:0d:93:69:
                    d7:9a:4c:0d:a2:d5:75:2f:f9:7c:09:af:66:4d:dc:
                    e6:7a:74:62:f1:75:d3:d0:0f:86:46:e9:c8:93:e2:
                    22:b8:4c:e8:c0:89:ab:84:f2:04:0f:1d:1d:6e:cd:
                    28:68:2b:64:c6:7e:e6:17:99:ad:a5:3a:70:78:b3:
                    fc:39:4e:27:fe:6a:7e:4d:cc:74:6e:0f:30:30:5c:
                    73:d5:7d:57:9b:f6:48:08:3b:80:3b:eb:50:b3:b7:
                    07:53:3f:21:0c:d2:3a:1c:a6:8c:f4:dc:28:78:0e:
                    06:2f:c1:fd:ab:f8:ff:b5:c7:61:e6:e6:1b:62:a4:
                    d8:a0:92:17:70:b5:dc:39:ca:35:2e:4d:1d:f2:94:
                    52:1e:a2:4c:1c:21:9a:26:61:c1:86:3b:ae:a2:ec:
                    45:86:63:38:6b:f3:5d:6e:02:98:0b:24:7e:58:b6:
                    a7:85:9c:3d:39:e2:26:be:01:b3:9d:09:71:2b:d5:
                    95:ef:a6:89:75:56:aa:3a:a7:f4:74:d7:9c:c1:8c:
                    c4:3c:c1:c7:73:77:e3:cc:4b:31:ef:5c:c2:cc:8c:
                    6e:8f:3a:14:6f:43:6c:b2:dd:c9:83:a4:f3:c8:cc:
                    c1:ce:70:dc:57:85:d6:ab:54:b2:83:b7:cf:d2:26:
                    5a:38:3b:e6:ee:01:b1:dd:89:bd:29:45:7a:6a:6c:
                    f4:ba:ae:31:70:02:b0:7d:dc:7e:d3:39:c6:3e:c6:
                    5d:c4:18:0b:23:cf:ed:70:44:f9:5b:8b:54:cd:f5:
                    73:51:c9:02:b1:2c:ad:b5:42:96:2a:97:88:98:a0:
                    3f:16:69:ce:a2:59:00:c3:28:d6:93:af:cf:18:15:
                    4b:be:30:c5:1f:66:e4:3e:d0:c9:97:43:5c:80:ff:
                    07:ea:c8:2f:69:8e:6e:2d:91:cd
                Exponent: 65537 (0x10001)
        X509v3 extensions:
            X509v3 Authority Key Identifier: 
                26:60:F6:B9:E1:01:C8:80:2E:B3:56:A4:C0:05:33:33:63:CC:94:B1
            X509v3 Basic Constraints: critical
                CA:TRUE, pathlen:0
            X509v3 Key Usage: critical
                Certificate Sign, CRL Sign
            X509v3 Name Constraints: critical
                Permitted:
                  DirName:O = Swaptacular Nodes Registry, OU = Accounting Authorities, serialNumber = 0abcdef1
            X509v3 Subject Key Identifier: 
                33:CA:B1:03:F6:7C:21:63:DA:13:66:22:6A:1B:4A:94:EC:A9:7E:B8
            Netscape Comment: 
                ..
    Signature Algorithm: sha256WithRSAEncryption
    Signature Value:
        2a:54:8e:34:2c:01:d0:d6:01:56:9f:c9:ed:2b:10:ee:53:a0:
        f2:e9:28:e4:1a:b4:92:30:f4:1d:0b:7b:ab:40:d5:d3:ef:7d:
        69:62:84:b0:cb:39:61:d3:58:d2:96:62:99:4d:25:60:bb:5f:
        03:4b:c1:bc:5c:a7:fe:67:85:19:7c:ef:a4:12:19:70:5f:5b:
        a2:69:50:b0:2c:6b:93:41:23:40:91:1e:66:24:bb:b0:94:d8:
        78:8d:dd:ab:50:de:18:6b:23:60:8f:de:11:ec:77:ff:8c:92:
        30:7c:01:4a:d7:ee:14:f9:bf:bf:c3:4e:bb:81:6c:a3:9d:2e:
        e8:44:d2:5b:48:0b:d9:70:99:ae:49:21:80:df:d6:11:0e:18:
        ed:59:17:82:76:24:56:58:b8:5e:21:6f:b7:d0:7a:f2:60:0a:
        e7:94:4a:13:59:5e:06:12:63:72:4a:47:ac:47:34:19:ab:ef:
        50:bd:7a:90:d7:a2:32:f3:24:8f:7d:b1:d7:b4:57:a1:d0:13:
        b4:2e:7f:3b:16:6b:34:8c:ca:a9:88:2f:2a:e0:8d:12:f2:c5:
        62:6a:18:d9:ba:95:f0:92:5e:b8:64:32:93:0c:ca:f2:aa:bf:
        eb:e5:89:75:ab:0f:1f:bb:02:a9:32:4a:79:e7:bd:ef:eb:62:
        c3:5e:39:ed:43:e4:aa:38:c6:85:8b:71:42:25:a7:7a:78:81:
        4f:5c:c8:9e:b1:9f:6b:d6:55:4b:94:ec:ac:94:85:f8:cc:31:
        4e:8c:b6:9b:e7:a4:81:1c:6c:a8:bb:0f:6c:72:80:99:9d:56:
        e7:6a:0d:77:02:66:51:a1:2f:d1:0c:e4:87:ad:75:a1:15:7c:
        3c:5d:ad:56:cf:64:b3:3c:22:40:bd:95:30:87:e1:5a:dc:aa:
        cb:5b:f5:5a:6e:67:ba:55:09:7c:a3:23:16:4d:71:a1:f5:92:
        e9:a5:f8:a0:aa:bb:5f:d9:a7:82:d3:4a:f6:7e:86:60:47:bf:
        07:34:79:92:e4:06
-----BEGIN CERTIFICATE-----
MIIFNzCCA5+gAwIBAgIRALEOLJjnvZGoEz2ScJ7KrcQwDQYJKoZIhvcNAQELBQAw
aTEjMCEGA1UECgwaU3dhcHRhY3VsYXIgTm9kZXMgUmVnaXN0cnkxFzAVBgNVBAsM
DkRlYnRvcnMgQWdlbnRzMSkwJwYDVQQFEyAyMTg2ZDA0ZjMxZjlkMjQ5OTQyOGFi
MDdhN2I0NzQ2NzAgFw0yNTAzMjkxNDU3MzBaGA8zMDI0MDczMDE0NTczMFowWTEj
MCEGA1UECgwaU3dhcHRhY3VsYXIgTm9kZXMgUmVnaXN0cnkxHzAdBgNVBAsMFkFj
Y291bnRpbmcgQXV0aG9yaXRpZXMxETAPBgNVBAUTCDBhYmNkZWYxMIIBojANBgkq
hkiG9w0BAQEFAAOCAY8AMIIBigKCAYEAiXw1r8Pi8TltRAnKaB3RcPsoBuF0nlaw
fSRVXSHK61R6iFwz47ySl60Nk2nXmkwNotV1L/l8Ca9mTdzmenRi8XXT0A+GRunI
k+IiuEzowImrhPIEDx0dbs0oaCtkxn7mF5mtpTpweLP8OU4n/mp+Tcx0bg8wMFxz
1X1Xm/ZICDuAO+tQs7cHUz8hDNI6HKaM9NwoeA4GL8H9q/j/tcdh5uYbYqTYoJIX
cLXcOco1Lk0d8pRSHqJMHCGaJmHBhjuuouxFhmM4a/NdbgKYCyR+WLanhZw9OeIm
vgGznQlxK9WV76aJdVaqOqf0dNecwYzEPMHHc3fjzEsx71zCzIxujzoUb0Nsst3J
g6TzyMzBznDcV4XWq1Syg7fP0iZaODvm7gGx3Ym9KUV6amz0uq4xcAKwfdx+0znG
PsZdxBgLI8/tcET5W4tUzfVzUckCsSyttUKWKpeImKA/FmnOolkAwyjWk6/PGBVL
vjDFH2bkPtDJl0NcgP8H6sgvaY5uLZHNAgMBAAGjgecwgeQwHwYDVR0jBBgwFoAU
JmD2ueEByIAus1akwAUzM2PMlLEwEgYDVR0TAQH/BAgwBgEB/wIBADAOBgNVHQ8B
Af8EBAMCAQYwbQYDVR0eAQH/BGMwYaBfMF2kWzBZMSMwIQYDVQQKDBpTd2FwdGFj
dWxhciBOb2RlcyBSZWdpc3RyeTEfMB0GA1UECwwWQWNjb3VudGluZyBBdXRob3Jp
dGllczERMA8GA1UEBRMIMGFiY2RlZjEwHQYDVR0OBBYEFDPKsQP2fCFj2hNmImob
SpTsqX64MA8GCWCGSAGG+EIBDQQCFgAwDQYJKoZIhvcNAQELBQADggGBACpUjjQs
AdDWAVafye0rEO5ToPLpKOQatJIw9B0Le6tA1dPvfWlihLDLOWHTWNKWYplNJWC7
XwNLwbxcp/5nhRl876QSGXBfW6JpULAsa5NBI0CRHmYku7CU2HiN3atQ3hhrI2CP
3hHsd/+MkjB8AUrX7hT5v7/DTruBbKOdLuhE0ltIC9lwma5JIYDf1hEOGO1ZF4J2
JFZYuF4hb7fQevJgCueUShNZXgYSY3JKR6xHNBmr71C9epDXojLzJI99sde0V6HQ
E7QufzsWazSMyqmILyrgjRLyxWJqGNm6lfCSXrhkMpMMyvKqv+vliXWrDx+7Aqky
Snnnve/rYsNeOe1D5Ko4xoWLcUIlp3p4gU9cyJ6xn2vWVUuU7KyUhfjMMU6Mtpvn
pIEcbKi7D2xygJmdVudqDXcCZlGhL9EM5IetdaEVfDxdrVbPZLM8IkC9lTCH4Vrc
qstb9VpuZ7pVCXyjIxZNcaH1kuml+KCqu1/Zp4LTSvZ+hmBHvwc0eZLkBg==
-----END CERTIFICATE-----
