Certificate:
    Data:
        Version: 3 (0x2)
        Serial Number:
            a6:33:a4:97:a0:83:23:95:ca:dd:db:7a:e7:94:ac:bb
        Signature Algorithm: sha256WithRSAEncryption
        Issuer: O=Swaptacular Nodes Registry, OU=Creditors Agents/serialNumber=fa78d2429654a1d62083a74e6265dd01
        Validity
            Not Before: Jul 23 12:44:19 2025 GMT
            Not After : Jul 23 12:44:19 2026 GMT
        Subject: O=Swaptacular Nodes Registry, OU=Creditors Agents/serialNumber=fa78d2429654a1d62083a74e6265dd01
        Subject Public Key Info:
            Public Key Algorithm: rsaEncryption
                Public-Key: (3072 bit)
                Modulus:
                    00:c8:9e:05:19:7e:ec:c2:03:90:14:ee:0a:8e:f9:
                    15:57:b9:8a:43:8a:ed:a9:cb:fe:c7:25:97:48:98:
                    11:7a:bf:65:4a:37:72:57:55:b7:8f:5b:5a:0f:41:
                    f2:71:df:b7:6d:69:ef:ef:c5:a9:21:f1:c7:f0:00:
                    47:7e:15:fd:86:4d:1a:e0:3c:4a:85:d4:86:54:a9:
                    49:2e:2f:36:1f:01:e6:8a:ce:92:1c:74:6f:04:93:
                    b0:d2:95:77:4a:db:d5:a8:eb:59:a8:93:4c:b3:af:
                    9a:b8:4e:cd:00:44:ec:ee:45:b2:fb:01:a7:4f:07:
                    a9:9b:8d:51:f0:86:f8:22:91:82:42:64:6f:a1:0e:
                    54:70:98:7f:4b:1e:f0:78:75:03:05:dc:37:6c:73:
                    a0:7b:60:ab:bb:db:7e:8a:8b:e4:46:99:7a:95:fe:
                    0e:07:8d:08:ed:57:05:e4:c7:78:0e:d9:02:bf:67:
                    78:7c:ec:b2:a4:02:2e:3d:4a:24:72:ca:fb:4c:1b:
                    d2:ab:80:ef:85:1b:c3:c4:42:bd:03:ec:6c:d9:42:
                    e7:1a:57:18:55:3a:ff:ee:59:8d:f0:44:1e:49:26:
                    a8:68:a4:a0:62:de:9b:6f:dd:69:7f:a7:95:a0:b4:
                    9d:7c:f6:f5:39:61:ad:60:da:61:12:e0:2a:ae:5b:
                    93:b9:6a:45:25:43:21:c5:e7:f3:d2:36:9e:34:fd:
                    42:5f:98:15:58:ec:3c:ce:cc:da:70:de:cb:5b:31:
                    c6:bd:d0:fb:6a:56:12:75:cd:e6:d1:41:eb:3c:14:
                    4e:cd:bd:66:0a:75:ce:f4:5b:b5:f4:b5:6c:aa:74:
                    c6:cf:9b:ad:41:07:9f:cb:85:44:29:18:5a:b9:93:
                    60:74:56:87:90:60:29:f6:1d:d1:ec:4e:64:33:ec:
                    f4:5f:5f:26:0a:a2:eb:28:90:30:08:d8:1c:59:ef:
                    00:da:be:7a:d1:45:11:7d:b4:3c:4a:1b:35:04:1b:
                    05:89:52:bf:93:f7:d1:bb:e3:ed
                Exponent: 65537 (0x10001)
        X509v3 extensions:
            X509v3 Authority Key Identifier: 
                07:C6:6D:31:FB:83:E3:27:71:D3:0E:D9:09:2C:E2:DB:15:34:1B:2C
            X509v3 Basic Constraints: critical
                CA:FALSE
            X509v3 Extended Key Usage: 
                TLS Web Client Authentication, TLS Web Server Authentication
            X509v3 Key Usage: critical
                Digital Signature, Key Encipherment
            X509v3 Subject Key Identifier: 
                57:88:DE:FB:EA:53:30:80:41:E5:15:35:DE:0E:F9:C7:D5:94:E4:5D
    Signature Algorithm: sha256WithRSAEncryption
    Signature Value:
        22:a5:3f:06:ef:d8:91:2a:9b:ee:35:bc:56:db:75:5c:b3:f3:
        eb:0a:9a:7f:6f:bb:73:1e:1e:72:30:7b:82:cb:c1:4e:7e:3d:
        9e:2a:5a:c1:92:f5:57:4d:b5:6c:27:cc:c6:bc:d1:8d:38:ab:
        63:77:88:45:53:b4:31:99:18:cd:46:9e:68:8e:d8:11:93:94:
        f0:f9:e0:6c:65:26:18:bc:2e:7f:11:76:ac:15:c5:06:9a:d6:
        c9:49:14:88:96:4a:d8:04:7b:b3:09:e1:36:a9:06:a6:4c:a8:
        c6:52:ce:1e:d1:9d:66:66:9d:60:3c:55:b5:49:8a:6a:1f:a1:
        94:a6:ee:a3:52:3f:b1:fd:05:6f:68:41:4a:3d:2b:81:c8:93:
        7d:5d:cc:4e:63:0f:97:d6:b6:e2:2a:f8:2f:9e:af:a3:64:0c:
        69:19:7f:3d:26:20:28:ae:09:39:38:98:a0:0e:db:1f:d4:96:
        8e:9d:7b:da:4e:14:44:46:16:fb:df:6a:18:fa:4c:a5:56:3d:
        15:6a:79:50:58:22:4e:62:3d:12:6f:38:ac:69:35:42:cc:ba:
        8f:40:1d:d5:93:1d:0d:14:9a:11:c0:e2:ef:d8:8b:4a:ff:ce:
        97:e3:21:b2:f4:23:a6:3c:20:f5:bd:be:fb:85:8a:0c:98:0e:
        63:4c:a4:bb:82:94:b9:bf:42:36:ae:fe:9c:8d:c3:cd:63:c2:
        43:45:6c:66:0a:cd:ce:56:41:fe:a3:00:da:90:75:c9:8d:4c:
        24:85:f8:ce:f1:6b:d1:79:90:47:5f:a6:0a:16:e9:26:07:47:
        8f:05:dc:c2:4b:8c:c0:f4:bd:6b:c7:2e:18:1a:8b:f2:90:51:
        27:23:fa:e7:1f:0b:9e:fd:03:b0:74:52:7a:cc:04:94:91:30:
        99:6a:5d:29:a5:17:9e:53:46:e7:0f:9c:a9:18:e1:9c:08:cb:
        e5:9f:a5:70:89:0c:1e:71:28:20:90:2e:09:96:fd:2f:cc:b7:
        23:03:ea:b3:99:e5
-----BEGIN CERTIFICATE-----
MIIE4DCCA0igAwIBAgIRAKYzpJeggyOVyt3beueUrLswDQYJKoZIhvcNAQELBQAw
azEjMCEGA1UECgwaU3dhcHRhY3VsYXIgTm9kZXMgUmVnaXN0cnkxGTAXBgNVBAsM
EENyZWRpdG9ycyBBZ2VudHMxKTAnBgNVBAUTIGZhNzhkMjQyOTY1NGExZDYyMDgz
YTc0ZTYyNjVkZDAxMB4XDTI1MDcyMzEyNDQxOVoXDTI2MDcyMzEyNDQxOVowazEj
MCEGA1UECgwaU3dhcHRhY3VsYXIgTm9kZXMgUmVnaXN0cnkxGTAXBgNVBAsMEENy
ZWRpdG9ycyBBZ2VudHMxKTAnBgNVBAUTIGZhNzhkMjQyOTY1NGExZDYyMDgzYTc0
ZTYyNjVkZDAxMIIBojANBgkqhkiG9w0BAQEFAAOCAY8AMIIBigKCAYEAyJ4FGX7s
wgOQFO4KjvkVV7mKQ4rtqcv+xyWXSJgRer9lSjdyV1W3j1taD0Hycd+3bWnv78Wp
IfHH8ABHfhX9hk0a4DxKhdSGVKlJLi82HwHmis6SHHRvBJOw0pV3StvVqOtZqJNM
s6+auE7NAETs7kWy+wGnTwepm41R8Ib4IpGCQmRvoQ5UcJh/Sx7weHUDBdw3bHOg
e2Cru9t+iovkRpl6lf4OB40I7VcF5Md4DtkCv2d4fOyypAIuPUokcsr7TBvSq4Dv
hRvDxEK9A+xs2ULnGlcYVTr/7lmN8EQeSSaoaKSgYt6bb91pf6eVoLSdfPb1OWGt
YNphEuAqrluTuWpFJUMhxefz0jaeNP1CX5gVWOw8zszacN7LWzHGvdD7alYSdc3m
0UHrPBROzb1mCnXO9Fu19LVsqnTGz5utQQefy4VEKRhauZNgdFaHkGAp9h3R7E5k
M+z0X18mCqLrKJAwCNgcWe8A2r560UURfbQ8Shs1BBsFiVK/k/fRu+PtAgMBAAGj
fzB9MB8GA1UdIwQYMBaAFAfGbTH7g+MncdMO2Qks4tsVNBssMAwGA1UdEwEB/wQC
MAAwHQYDVR0lBBYwFAYIKwYBBQUHAwIGCCsGAQUFBwMBMA4GA1UdDwEB/wQEAwIF
oDAdBgNVHQ4EFgQUV4je++pTMIBB5RU13g75x9WU5F0wDQYJKoZIhvcNAQELBQAD
ggGBACKlPwbv2JEqm+41vFbbdVyz8+sKmn9vu3MeHnIwe4LLwU5+PZ4qWsGS9VdN
tWwnzMa80Y04q2N3iEVTtDGZGM1GnmiO2BGTlPD54GxlJhi8Ln8RdqwVxQaa1slJ
FIiWStgEe7MJ4TapBqZMqMZSzh7RnWZmnWA8VbVJimofoZSm7qNSP7H9BW9oQUo9
K4HIk31dzE5jD5fWtuIq+C+er6NkDGkZfz0mICiuCTk4mKAO2x/Ulo6de9pOFERG
Fvvfahj6TKVWPRVqeVBYIk5iPRJvOKxpNULMuo9AHdWTHQ0UmhHA4u/Yi0r/zpfj
IbL0I6Y8IPW9vvuFigyYDmNMpLuClLm/Qjau/pyNw81jwkNFbGYKzc5WQf6jANqQ
dcmNTCSF+M7xa9F5kEdfpgoW6SYHR48F3MJLjMD0vWvHLhgai/KQUScj+ucfC579
A7B0UnrMBJSRMJlqXSmlF55TRucPnKkY4ZwIy+WfpXCJDB5xKCCQLgmW/S/MtyMD
6rOZ5Q==
-----END CERTIFICATE-----
