Certificate:
    Data:
        Version: 3 (0x2)
        Serial Number:
            b1:0e:2c:98:e7:bd:91:a8:13:3d:92:70:9e:ca:ad:c5
        Signature Algorithm: sha256WithRSAEncryption
        Issuer: O=Swaptacular Nodes Registry, OU=Debtors Agents/serialNumber=2186d04f31f9d2499428ab07a7b47467
        Validity
            Not Before: Jul 23 12:43:33 2025 GMT
            Not After : Jul 23 12:43:33 2026 GMT
        Subject: O=Swaptacular Nodes Registry, OU=Debtors Agents/serialNumber=2186d04f31f9d2499428ab07a7b47467
        Subject Public Key Info:
            Public Key Algorithm: rsaEncryption
                Public-Key: (3072 bit)
                Modulus:
                    00:c6:4c:52:17:ee:55:bd:fd:24:8c:e5:d1:7c:ca:
                    c3:66:7a:02:97:78:f1:11:0e:01:bf:1b:fb:d3:0f:
                    05:59:63:8a:ac:e8:6d:50:36:51:97:d1:e9:31:42:
                    86:33:06:3e:66:51:e4:3e:71:f4:bb:3e:cd:91:37:
                    1a:1e:91:ad:94:b6:cc:80:50:d9:49:50:5d:cd:0f:
                    be:56:dc:13:39:0a:6b:e1:12:51:e2:29:f9:a7:02:
                    7f:60:97:ad:81:3d:da:ba:d4:3f:28:42:40:01:45:
                    df:98:fd:1b:bd:c0:35:af:0e:71:bb:63:eb:13:38:
                    85:a1:15:67:37:ae:5f:96:55:0f:79:12:e7:dc:ad:
                    93:69:fd:20:64:b2:d4:36:27:75:fe:74:ed:fe:20:
                    54:67:4d:ce:e6:05:cb:66:d6:ea:87:d8:48:4a:f5:
                    19:59:2d:f7:4f:10:f0:6a:74:73:e2:7d:d8:ec:80:
                    3c:16:72:8c:20:e6:ad:9f:d9:9b:6a:b9:92:59:33:
                    19:47:52:aa:c0:3a:0b:98:69:b3:95:8f:7d:9a:87:
                    d1:26:09:92:d4:82:a4:6a:5e:dc:e7:c3:86:ac:03:
                    87:e1:87:39:01:b2:bb:a5:ba:57:c1:26:56:f7:c8:
                    3a:1a:63:f1:6b:42:64:16:0f:5d:1a:63:72:93:21:
                    13:9a:45:58:b6:b7:77:9e:f2:f6:3a:51:b9:0c:3e:
                    d7:0d:01:9d:57:b7:65:b2:80:14:0f:75:d0:87:22:
                    ad:bd:c6:05:c6:d0:41:0f:19:de:d1:94:61:11:0e:
                    a9:80:d8:ee:69:7f:39:1e:09:19:57:bf:21:90:de:
                    d6:cb:90:f9:33:3e:67:b4:fb:d1:d1:bb:9e:69:a5:
                    92:4f:62:20:24:a4:3a:63:c4:aa:3b:7d:42:35:23:
                    e1:6b:86:79:c3:ad:cc:20:ab:6c:40:fd:c4:1e:74:
                    d7:e3:84:f8:e9:ca:41:5a:57:9e:ff:6a:90:6e:d9:
                    13:5b:37:3e:21:6e:d4:cd:8f:f7
                Exponent: 65537 (0x10001)
        X509v3 extensions:
            X509v3 Authority Key Identifier: 
                26:60:F6:B9:E1:01:C8:80:2E:B3:56:A4:C0:05:33:33:63:CC:94:B1
            X509v3 Basic Constraints: critical
                CA:FALSE
            X509v3 Extended Key Usage: 
                TLS Web Client Authentication, TLS Web Server Authentication
            X509v3 Key Usage: critical
                Digital Signature, Key Encipherment
            X509v3 Subject Key Identifier: 
                A1:B5:0E:B3:87:48:01:4E:EB:0C:BA:BB:A0:61:B0:76:32:08:22:66
    Signature Algorithm: sha256WithRSAEncryption
    Signature Value:
        a2:e6:a7:31:29:ad:bd:3a:9e:57:3b:cd:b6:71:47:76:64:2b:
        05:1b:29:7c:6a:b9:5c:59:fa:96:25:b0:49:c1:3a:4a:4e:4c:
        d8:58:57:bd:81:d6:d2:a2:2d:6c:46:ba:42:ca:dd:7c:ad:fd:
        7d:a2:21:27:10:39:92:35:c7:d6:12:88:13:fa:fa:88:54:5f:
        65:de:5c:0b:c6:a9:4c:59:de:00:44:6f:e1:18:a8:09:18:91:
        0f:9d:a3:91:3f:8a:28:91:54:8c:14:c8:0d:16:bd:f5:08:05:
        fb:fe:2b:c5:57:32:e7:6e:59:da:0e:8b:67:7f:be:e4:94:dd:
        d8:b1:97:83:40:7d:21:8b:a1:f0:cb:1f:a0:ed:99:4e:b2:41:
        67:bc:31:6e:7c:44:be:04:b8:68:5d:14:15:f5:22:2e:72:2c:
        55:00:14:87:3d:f9:96:4e:a2:81:91:fc:1a:db:e8:bc:01:30:
        af:c7:2c:3b:a6:89:86:d0:31:a6:6c:4e:01:4a:66:7a:0e:65:
        9d:ec:49:d8:3a:7a:bf:3d:64:0e:0a:43:76:c2:ba:c6:57:3a:
        97:fe:7e:19:11:cb:27:50:a6:bf:d0:78:74:4e:0f:e0:83:14:
        12:34:2d:b0:d7:9b:b5:f6:34:9b:1a:0a:07:7e:e0:99:c8:68:
        76:fa:7b:70:09:ae:b3:02:b6:c9:cf:c6:94:30:ca:13:6e:7d:
        4a:c0:b4:6d:67:6a:1f:a7:f4:f2:47:f8:03:c0:9d:df:f7:24:
        cb:1b:fe:af:f2:d6:9a:fb:88:6e:82:85:53:95:7c:8c:65:bf:
        b3:77:f3:76:21:93:41:49:d6:26:23:8c:ca:dc:52:58:c8:c6:
        80:25:ba:42:70:ff:4b:a0:39:6a:8d:c7:4e:da:74:9d:89:58:
        9e:6f:93:bb:98:3f:14:d1:9a:a3:58:9f:60:21:21:b1:0c:5c:
        a5:54:d8:a4:1a:24:7c:72:63:04:43:b2:be:ba:4f:46:c5:67:
        a9:9d:80:4c:af:97
-----BEGIN CERTIFICATE-----
MIIE3DCCA0SgAwIBAgIRALEOLJjnvZGoEz2ScJ7KrcUwDQYJKoZIhvcNAQELBQAw
aTEjMCEGA1UECgwaU3dhcHRhY3VsYXIgTm9kZXMgUmVnaXN0cnkxFzAVBgNVBAsM
DkRlYnRvcnMgQWdlbnRzMSkwJwYDVQQFEyAyMTg2ZDA0ZjMxZjlkMjQ5OTQyOGFi
MDdhN2I0NzQ2NzAeFw0yNTA3MjMxMjQzMzNaFw0yNjA3MjMxMjQzMzNaMGkxIzAh
BgNVBAoMGlN3YXB0YWN1bGFyIE5vZGVzIFJlZ2lzdHJ5MRcwFQYDVQQLDA5EZWJ0
b3JzIEFnZW50czEpMCcGA1UEBRMgMjE4NmQwNGYzMWY5ZDI0OTk0MjhhYjA3YTdi
NDc0NjcwggGiMA0GCSqGSIb3DQEBAQUAA4IBjwAwggGKAoIBgQDGTFIX7lW9/SSM
5dF8ysNmegKXePERDgG/G/vTDwVZY4qs6G1QNlGX0ekxQoYzBj5mUeQ+cfS7Ps2R
Nxoeka2UtsyAUNlJUF3ND75W3BM5CmvhElHiKfmnAn9gl62BPdq61D8oQkABRd+Y
/Ru9wDWvDnG7Y+sTOIWhFWc3rl+WVQ95EufcrZNp/SBkstQ2J3X+dO3+IFRnTc7m
Bctm1uqH2EhK9RlZLfdPEPBqdHPifdjsgDwWcowg5q2f2ZtquZJZMxlHUqrAOguY
abOVj32ah9EmCZLUgqRqXtznw4asA4fhhzkBsrululfBJlb3yDoaY/FrQmQWD10a
Y3KTIROaRVi2t3ee8vY6UbkMPtcNAZ1Xt2WygBQPddCHIq29xgXG0EEPGd7RlGER
DqmA2O5pfzkeCRlXvyGQ3tbLkPkzPme0+9HRu55ppZJPYiAkpDpjxKo7fUI1I+Fr
hnnDrcwgq2xA/cQedNfjhPjpykFaV57/apBu2RNbNz4hbtTNj/cCAwEAAaN/MH0w
HwYDVR0jBBgwFoAUJmD2ueEByIAus1akwAUzM2PMlLEwDAYDVR0TAQH/BAIwADAd
BgNVHSUEFjAUBggrBgEFBQcDAgYIKwYBBQUHAwEwDgYDVR0PAQH/BAQDAgWgMB0G
A1UdDgQWBBShtQ6zh0gBTusMurugYbB2MggiZjANBgkqhkiG9w0BAQsFAAOCAYEA
ouanMSmtvTqeVzvNtnFHdmQrBRspfGq5XFn6liWwScE6Sk5M2FhXvYHW0qItbEa6
QsrdfK39faIhJxA5kjXH1hKIE/r6iFRfZd5cC8apTFneAERv4RioCRiRD52jkT+K
KJFUjBTIDRa99QgF+/4rxVcy525Z2g6LZ3++5JTd2LGXg0B9IYuh8MsfoO2ZTrJB
Z7wxbnxEvgS4aF0UFfUiLnIsVQAUhz35lk6igZH8GtvovAEwr8csO6aJhtAxpmxO
AUpmeg5lnexJ2Dp6vz1kDgpDdsK6xlc6l/5+GRHLJ1Cmv9B4dE4P4IMUEjQtsNeb
tfY0mxoKB37gmchodvp7cAmuswK2yc/GlDDKE259SsC0bWdqH6f08kf4A8Cd3/ck
yxv+r/LWmvuIboKFU5V8jGW/s3fzdiGTQUnWJiOMytxSWMjGgCW6QnD/S6A5ao3H
Ttp0nYlYnm+Tu5g/FNGao1ifYCEhsQxcpVTYpBokfHJjBEOyvrpPRsVnqZ2ATK+X
-----END CERTIFICATE-----
